ReferenceId	Unknown1	StringId	Unknown2	String	Attribute1	Attribute2	Attribute3	Attribute4
13934	337	RareObject	0	Rare [object]	English			
13935	3256	EpicObject	0	Epic [object]	English			
13936	794	LegendaryObject	0	Legendary [object]	English			
13937	244	MutantObject	0	Mutant [object]	English			
13938	1310	affix name apply 1	0	[set]	English			
13939	1311	affix name apply 2	0	[magic]	English			
13940	1312	affix name apply 3	0	[quality]	English			
13941	1432	affix add broken	0	Broken [item]	English			
13942	3301	affix add inferior	0	Inferior [item]	English			
13943	312	affix add superior	0	Superior [item]	English			
13944	3865	affix add improved	0	Improved [item]	English			
13945	2529	affix add experimental	0	Experimental [item]	English			
13946	2648	affix sub dam aug 1	0	Blessed [item]	English			
13947	203	affix sub dam aug 1 desc	0	Blessed	English			
13948	2649	affix sub dam aug 2	0	Sacred [item]	English			
13949	2976	affix sub dam aug 2 desc	0	Sacred	English			
13950	2650	affix sub dam aug 3	0	Divine [item]	English			
13951	1653	affix sub dam aug 3 desc	0	Divine	English			
13952	1145	affix sub dmg boost phys weap 1	0	Smashing [item]	English			
13953	2112	affix sub dmg boost phys weap 1 desc	0	Smashing	English			
13954	1146	affix sub dmg boost phys weap 2	0	Bashing [item]	English			
13955	789	affix sub dmg boost phys weap 2 desc	0	Bashing	English			
13956	1147	affix sub dmg boost phys weap 3	0	Pummeling [item]	English			
13957	3562	affix sub dmg boost phys weap 3 desc	0	Pummeling	English			
13958	4071	affix sub dmg boost fire weap 1	0	Kindled [item]	English			
13959	1734	affix sub dmg boost fire weap 1 desc	0	Kindled	English			
13960	4072	affix sub dmg boost fire weap 2	0	Inflamed [item]	English			
13961	411	affix sub dmg boost fire weap 2 desc	0	Inflamed	English			
13962	4073	affix sub dmg boost fire weap 3	0	Volcanic [item]	English			
13963	3184	affix sub dmg boost fire weap 3 desc	0	Volcanic	English			
13964	2742	affix sub dmg boost elec weap 1	0	Juiced [item]	English			
13965	2817	affix sub dmg boost elec weap 1 desc	0	Juiced	English			
13966	2743	affix sub dmg boost elec weap 2	0	Galvanized [item]	English			
13967	1494	affix sub dmg boost elec weap 2 desc	0	Galvanized	English			
13968	2744	affix sub dmg boost elec weap 3	0	Volted [item]	English			
13969	171	affix sub dmg boost elec weap 3 desc	0	Volted	English			
13970	3560	affix sub dmg boost spec weap 1	0	Eerie [item]	English			
13971	1947	affix sub dmg boost spec weap 1 desc	0	Eerie	English			
13972	3561	affix sub dmg boost spec weap 2	0	Lucent [item]	English			
13973	624	affix sub dmg boost spec weap 2 desc	0	Lucent	English			
13974	3562	affix sub dmg boost spec weap 3	0	Radiant [item]	English			
13975	3397	affix sub dmg boost spec weap 3 desc	0	Radiant	English			
13976	1568	affix sub dmg boost toxic weap 1	0	Sickening [item]	English			
13977	3635	affix sub dmg boost toxic weap 1 desc	0	Sickening	English			
13978	1569	affix sub dmg boost toxic weap 2	0	Loathsome [item]	English			
13979	2312	affix sub dmg boost toxic weap 2 desc	0	Loathsome	English			
13980	1570	affix sub dmg boost toxic weap 3	0	Tainted [item]	English			
13981	989	affix sub dmg boost toxic weap 3 desc	0	Tainted	English			
13982	3695	affix dom physical boost 1	0		English			
13983	3566	affix dom physical boost 1 desc	0		English			
13984	3696	affix dom physical boost 2	0		English			
13985	2243	affix dom physical boost 2 desc	0		English			
13986	3697	affix dom physical boost 3	0		English			
13987	920	affix dom physical boost 3 desc	0		English			
13988	3668	affix dom fire boost 1	0		English			
13989	2423	affix dom fire boost 1 desc	0		English			
13990	3669	affix dom fire boost 2	0		English			
13991	1100	affix dom fire boost 2 desc	0		English			
13992	3670	affix dom fire boost 3	0		English			
13993	3873	affix dom fire boost 3 desc	0		English			
13994	3727	affix dom electricity boost 1	0		English			
13995	2190	affix dom electricity boost 1 desc	0		English			
13996	3728	affix dom electricity boost 2	0		English			
13997	867	affix dom electricity boost 2 desc	0		English			
13998	3729	affix dom electricity boost 3	0		English			
13999	3640	affix dom electricity boost 3 desc	0		English			
14000	2496	affix dom spectral boost 1	0		English			
14001	595	affix dom spectral boost 1 desc	0		English			
14002	2497	affix dom spectral boost 2	0		English			
14003	3368	affix dom spectral boost 2 desc	0		English			
14004	2498	affix dom spectral boost 3	0		English			
14005	2045	affix dom spectral boost 3 desc	0		English			
14006	781	affix dom toxic boost 1	0		English			
14007	356	affix dom toxic boost 1 desc	0		English			
14008	782	affix dom toxic boost 2	0		English			
14009	3129	affix dom toxic boost 2 desc	0		English			
14010	783	affix dom toxic boost 3	0		English			
14011	1806	affix dom toxic boost 3 desc	0		English			
14012	407	affix sub dam vs beast 1	0	Beast Seeker's [item]	English			
14013	3638	affix sub dam vs beast 1 desc	0	Beast Seeker's	English			
14014	408	affix sub dam vs beast 2	0	Beast Tracker's [item]	English			
14015	2315	affix sub dam vs beast 2 desc	0	Beast Tracker's	English			
14016	409	affix sub dam vs beast 3	0	Beast Hunter's [item]	English			
14017	992	affix sub dam vs beast 3 desc	0	Beast Hunter's	English			
14018	3147	affix sub dam vs necro 1	0	Necro Seeker's [item]	English			
14019	3578	affix sub dam vs necro 1 desc	0	Necro Seeker's	English			
14020	3148	affix sub dam vs necro 2	0	Necro Tracker's [item]	English			
14021	2255	affix sub dam vs necro 2 desc	0	Necro Tracker's	English			
14022	3149	affix sub dam vs necro 3	0	Necro Hunter's [item]	English			
14023	932	affix sub dam vs necro 3 desc	0	Necro Hunter's	English			
14024	2430	affix sub dam vs spectral 1	0	Spectral Seeker's [item]	English			
14025	1897	affix sub dam vs spectral 1 desc	0	Spectral Seeker's	English			
14026	2431	affix sub dam vs spectral 2	0	Spectral Tracker's [item]	English			
14027	574	affix sub dam vs spectral 2 desc	0	Spectral Tracker's	English			
14028	2432	affix sub dam vs spectral 3	0	Spectral Hunter's [item]	English			
14029	3347	affix sub dam vs spectral 3 desc	0	Spectral Hunter's	English			
14030	1771	affix sub dam vs demon 1	0	Demon Seeker's [item]	English			
14031	1306	affix sub dam vs demon 1 desc	0	Demon Seeker's	English			
14032	1772	affix sub dam vs demon 2	0	Demon Tracker's [item]	English			
14033	4079	affix sub dam vs demon 2 desc	0	Demon Tracker's	English			
14034	1773	affix sub dam vs demon 3	0	Demon Hunter's [item]	English			
14035	2756	affix sub dam vs demon 3 desc	0	Demon Hunter's	English			
14036	3011	affix sub dmg aug phys weap 1	0		English			
14037	3282	affix sub dmg aug phys weap 1 desc	0		English			
14038	3012	affix sub dmg aug phys weap 2	0		English			
14039	1959	affix sub dmg aug phys weap 2 desc	0		English			
14040	3013	affix sub dmg aug phys weap 3	0		English			
14041	636	affix sub dmg aug phys weap 3 desc	0		English			
14042	1841	affix sub dmg aug fire weap 1	0		English			
14043	2904	affix sub dmg aug fire weap 1 desc	0		English			
14044	1842	affix sub dmg aug fire weap 2	0		English			
14045	1581	affix sub dmg aug fire weap 2 desc	0		English			
14046	1843	affix sub dmg aug fire weap 3	0		English			
14047	258	affix sub dmg aug fire weap 3 desc	0		English			
14048	512	affix sub dmg aug elec weap 1	0		English			
14049	3987	affix sub dmg aug elec weap 1 desc	0		English			
14050	513	affix sub dmg aug elec weap 2	0		English			
14051	2664	affix sub dmg aug elec weap 2 desc	0		English			
14052	514	affix sub dmg aug elec weap 3	0		English			
14053	1341	affix sub dmg aug elec weap 3 desc	0		English			
14054	1330	affix sub dmg aug spec weap 1	0		English			
14055	3117	affix sub dmg aug spec weap 1 desc	0		English			
14056	1331	affix sub dmg aug spec weap 2	0		English			
14057	1794	affix sub dmg aug spec weap 2 desc	0		English			
14058	1332	affix sub dmg aug spec weap 3	0		English			
14059	471	affix sub dmg aug spec weap 3 desc	0		English			
14060	978	affix sub dmg aug toxic weap 1	0		English			
14061	1869	affix sub dmg aug toxic weap 1 desc	0		English			
14062	979	affix sub dmg aug toxic weap 2	0		English			
14063	546	affix sub dmg aug toxic weap 2 desc	0		English			
14064	980	affix sub dmg aug toxic weap 3	0		English			
14065	3319	affix sub dmg aug toxic weap 3 desc	0		English			
14066	2005	affix dom physical aug mod 1	0	Hammering [item]	English			
14067	3020	affix dom physical aug mod 1 desc	0	Hammering	English			
14068	2006	affix dom physical aug mod 2	0	Pounding [item]	English			
14069	1697	affix dom physical aug mod 2 desc	0	Pounding	English			
14070	2007	affix dom physical aug mod 3	0	Thunderous [item]	English			
14071	374	affix dom physical aug mod 3 desc	0	Thunderous	English			
14072	1906	affix dom fire aug mod 1	0	Fiery [item]	English			
14073	2925	affix dom fire aug mod 1 desc	0	Fiery	English			
14074	1907	affix dom fire aug mod 2	0	Flaming [item]	English			
14075	1602	affix dom fire aug mod 2 desc	0	Flaming	English			
14076	1908	affix dom fire aug mod 3	0	Blazing [item]	English			
14077	279	affix dom fire aug mod 3 desc	0	Blazing	English			
14078	757	affix dom electricity aug mod 1	0	Shocking [item]	English			
14079	3436	affix dom electricity aug mod 1 desc	0	Shocking	English			
14080	758	affix dom electricity aug mod 2	0	Jolting [item]	English			
14081	2113	affix dom electricity aug mod 2 desc	0	Jolting	English			
14082	759	affix dom electricity aug mod 3	0	Electrified [item]	English			
14083	790	affix dom electricity aug mod 3 desc	0	Electrified	English			
14084	3070	affix dom spectral aug mod 1	0	Spectral [item]	English			
14085	3049	affix dom spectral aug mod 1 desc	0	Spectral	English			
14086	3071	affix dom spectral aug mod 2	0	Ghostly [item]	English			
14087	1726	affix dom spectral aug mod 2 desc	0	Ghostly	English			
14088	3072	affix dom spectral aug mod 3	0	Unearthly [item]	English			
14089	403	affix dom spectral aug mod 3 desc	0	Unearthly	English			
14090	2243	affix dom toxic aug mod 1	0	Poisonous [item]	English			
14091	3538	affix dom toxic aug mod 1 desc	0	Poisonous	English			
14092	2244	affix dom toxic aug mod 2	0	Noxious [item]	English			
14093	2215	affix dom toxic aug mod 2 desc	0	Noxious	English			
14094	2245	affix dom toxic aug mod 3	0	Toxic [item]	English			
14095	892	affix dom toxic aug mod 3 desc	0	Toxic	English			
14096	3432	affix dom physical aug relic 1	0	Stone [item]	English			
14097	3355	affix dom physical aug relic 1 desc	0	Stone	English			
14098	3433	affix dom physical aug relic 2	0	Granite [item]	English			
14099	2032	affix dom physical aug relic 2 desc	0	Granite	English			
14100	3434	affix dom physical aug relic 3	0	Marble [item]	English			
14101	709	affix dom physical aug relic 3 desc	0	Marble	English			
14102	2952	affix dom electricity aug relic 1	0	Copper [item]	English			
14103	3515	affix dom electricity aug relic 1 desc	0	Copper	English			
14104	2953	affix dom electricity aug relic 2	0	Aluminum [item]	English			
14105	2192	affix dom electricity aug relic 2 desc	0	Aluminum	English			
14106	2954	affix dom electricity aug relic 3	0	Silver [item]	English			
14107	869	affix dom electricity aug relic 3 desc	0	Silver	English			
14108	1574	affix dom toxic aug relic 1	0	Decayed [item]	English			
14109	3889	affix dom toxic aug relic 1 desc	0	Decayed	English			
14110	1575	affix dom toxic aug relic 2	0	Tainted [item]	English			
14111	2566	affix dom toxic aug relic 2 desc	0	Tainted	English			
14112	1576	affix dom toxic aug relic 3	0	Defiled [item]	English			
14113	1243	affix dom toxic aug relic 3 desc	0	Defiled	English			
14114	3967	affix dom toxic aug tech 1	0	Poison Injection [item]	English			
14115	62	affix dom toxic aug tech 1 desc	0	Poison Injection	English			
14116	3968	affix dom toxic aug tech 2	0	Toxic Injection [item]	English			
14117	2835	affix dom toxic aug tech 2 desc	0	Toxic Injection	English			
14118	3969	affix dom toxic aug tech 3	0	Plague Injection [item]	English			
14119	1512	affix dom toxic aug tech 3 desc	0	Plague Injection	English			
14120	258	affix sub crit chance add 1	0	Vindicator's [item]	English			
14121	61	affix sub crit chance add 1 desc	0	Vindicator's	English			
14122	259	affix sub crit chance add 2	0	Punisher's [item]	English			
14123	2834	affix sub crit chance add 2 desc	0	Punisher's	English			
14124	260	affix sub crit chance add 3	0	Avenger's [item]	English			
14125	1511	affix sub crit chance add 3 desc	0	Avenger's	English			
14126	3691	affix sub crit boost weap 1	0	Critically Enhanced [item]	English			
14127	666	affix sub crit boost weap 1 desc	0	Critically Enhanced	English			
14128	3692	affix sub crit boost weap 2	0	Critically Boosted [item]	English			
14129	3439	affix sub crit boost weap 2 desc	0	Critically Boosted	English			
14130	3693	affix sub crit boost weap 3	0	Critically Charged [item]	English			
14131	2116	affix sub crit boost weap 3 desc	0	Critically Charged	English			
14132	2470	affix sub wpn_hyperstabilizer 1	0	Stabilized [item]	English			
14133	2225	affix sub wpn_hyperstabilizer 1 desc	0	Stabilized	English			
14134	2471	affix sub wpn_hyperstabilizer 2	0	Equalized [item]	English			
14135	902	affix sub wpn_hyperstabilizer 2 desc	0	Equalized	English			
14136	2472	affix sub wpn_hyperstabilizer 3	0	Balanced [item]	English			
14137	3675	affix sub wpn_hyperstabilizer 3 desc	0	Balanced	English			
14138	4080	affix dom hyperstabilizer tech 1	0	Anchored [item]	English			
14139	2115	affix dom hyperstabilizer tech 1 desc	0	Anchored	English			
14140	4081	affix dom hyperstabilizer tech 2	0	Fastened [item]	English			
14141	792	affix dom hyperstabilizer tech 2 desc	0	Fastened	English			
14142	4082	affix dom hyperstabilizer tech 3	0	Equalized [item]	English			
14143	3565	affix dom hyperstabilizer tech 3 desc	0	Equalized	English			
14144	2337	affix sub crit chance vs beast 1	0	Beastblight [item]	English			
14145	2056	affix sub crit chance vs beast 1 desc	0	Beastblight	English			
14146	2338	affix sub crit chance vs beast 2	0	Beastscourge [item]	English			
14147	733	affix sub crit chance vs beast 2 desc	0	Beastscourge	English			
14148	2339	affix sub crit chance vs beast 3	0	Beastbane [item]	English			
14149	3506	affix sub crit chance vs beast 3 desc	0	Beastbane	English			
14150	981	affix sub crit chance vs necro 1	0	Necroblight [item]	English			
14151	1996	affix sub crit chance vs necro 1 desc	0	Necroblight	English			
14152	982	affix sub crit chance vs necro 2	0	Necroscourge [item]	English			
14153	673	affix sub crit chance vs necro 2 desc	0	Necroscourge	English			
14154	983	affix sub crit chance vs necro 3	0	Necrobane [item]	English			
14155	3446	affix sub crit chance vs necro 3 desc	0	Necrobane	English			
14156	3488	affix sub crit chance vs spectral 1	0	Spectralblight [item]	English			
14157	2995	affix sub crit chance vs spectral 1 desc	0	Spectralblight	English			
14158	3489	affix sub crit chance vs spectral 2	0	Spectralscourge [item]	English			
14159	1672	affix sub crit chance vs spectral 2 desc	0	Spectralscourge	English			
14160	3490	affix sub crit chance vs spectral 3	0	Spectralbane [item]	English			
14161	349	affix sub crit chance vs spectral 3 desc	0	Spectralbane	English			
14162	3701	affix sub crit chance vs demon 1	0	Demonblight [item]	English			
14163	3820	affix sub crit chance vs demon 1 desc	0	Demonblight	English			
14164	3702	affix sub crit chance vs demon 2	0	Demonscourge [item]	English			
14165	2497	affix sub crit chance vs demon 2 desc	0	Demonscourge	English			
14166	3703	affix sub crit chance vs demon 3	0	Demonbane [item]	English			
14167	1174	affix sub crit chance vs demon 3 desc	0	Demonbane	English			
14168	2045	affix sub crit aug weap 1	0	Crusher's [item]	English			
14169	3348	affix sub crit aug weap 1 desc	0	Crusher	English			
14170	2046	affix sub crit aug weap 2	0	Vanquisher's [item]	English			
14171	2025	affix sub crit aug weap 2 desc	0	Vanquisher	English			
14172	2047	affix sub crit aug weap 3	0	Annihilator's [item]	English			
14173	702	affix sub crit aug weap 3 desc	0	Annihilator	English			
14174	44	affix sub wpn_hypercompensator1	0	Compensated [item]	English			
14175	559	affix sub wpn_hypercompensator1 desc	0	Compensated	English			
14176	45	affix sub wpn_hypercompensator2	0	Regulated [item]	English			
14177	3332	affix sub wpn_hypercompensator2 desc	0	Regulated	English			
14178	46	affix sub wpn_hypercompensator3	0	Harmonized [item]	English			
14179	2009	affix sub wpn_hypercompensator3 desc	0	Harmonized	English			
14180	2946	affix dom hypercompensator1	0	Attuned [item]	English			
14181	3261	affix dom hypercompensator1 desc	0	Attuned	English			
14182	2947	affix dom hypercompensator2	0	Adaptive [item]	English			
14183	1938	affix dom hypercompensator2 desc	0	Adaptive	English			
14184	2948	affix dom hypercompensator3	0	Integrated [item]	English			
14185	615	affix dom hypercompensator3 desc	0	Integrated	English			
14186	1777	affix sub crit mult vs beast1	0	Beast Lasher's [item]	English			
14187	1560	affix sub crit mult vs beast1 desc	0	Beast Lasher's	English			
14188	1778	affix sub crit mult vs beast2	0	Beast Mauler's [item]	English			
14189	237	affix sub crit mult vs beast2 desc	0	Beast Mauler's	English			
14190	1779	affix sub crit mult vs beast3	0	Beast Slayer's [item]	English			
14191	3010	affix sub crit mult vs beast3 desc	0	Beast Slayer's	English			
14192	3733	affix sub crit mult vs necro1	0	Necro Lasher's [item]	English			
14193	2444	affix sub crit mult vs necro1 desc	0	Necro Lasher's	English			
14194	3734	affix sub crit mult vs necro2	0	Necro Mauler's [item]	English			
14195	1121	affix sub crit mult vs necro2 desc	0	Necro Mauler's	English			
14196	3735	affix sub crit mult vs necro3	0	Necro Slayer's [item]	English			
14197	3894	affix sub crit mult vs necro3 desc	0	Necro Slayer's	English			
14198	3332	affix sub crit mult vs spectral1	0	Spectral Lasher's [item]	English			
14199	487	affix sub crit mult vs spectral1 desc	0	Spectral Lasher's	English			
14200	3333	affix sub crit mult vs spectral2	0	Spectral Mauler's [item]	English			
14201	3260	affix sub crit mult vs spectral2 desc	0	Spectral Mauler's	English			
14202	3334	affix sub crit mult vs spectral3	0	Spectral Slayer's [item]	English			
14203	1937	affix sub crit mult vs spectral3 desc	0	Spectral Slayer's	English			
14204	3253	affix sub crit mult vs demon1	0	Demon Lasher's [item]	English			
14205	2604	affix sub crit mult vs demon1 desc	0	Demon Lasher's	English			
14206	3254	affix sub crit mult vs demon2	0	Demon Mauler's [item]	English			
14207	1281	affix sub crit mult vs demon2 desc	0	Demon Mauler's	English			
14208	3255	affix sub crit mult vs demon3	0	Demon Slayer's [item]	English			
14209	4054	affix sub crit mult vs demon3 desc	0	Demon Slayer's	English			
14210	3894	affix sub sfx boost phys weap 1	0	Forceful [item]	English			
14211	2433	affix sub sfx boost phys weap 1 desc	0	Forceful	English			
14212	3895	affix sub sfx boost phys weap 2	0	Compelling [item]	English			
14213	1110	affix sub sfx boost phys weap 2 desc	0	Compelling	English			
14214	3896	affix sub sfx boost phys weap 3	0	Roundhouse [item]	English			
14215	3883	affix sub sfx boost phys weap 3 desc	0	Roundhouse	English			
14216	2724	affix sub sfx boost fire weap 1	0	Burning [item]	English			
14217	2055	affix sub sfx boost fire weap 1 desc	0	Burning	English			
14218	2725	affix sub sfx boost fire weap 2	0	Igniting [item]	English			
14219	732	affix sub sfx boost fire weap 2 desc	0	Igniting	English			
14220	2726	affix sub sfx boost fire weap 3	0	Combustible [item]	English			
14221	3505	affix sub sfx boost fire weap 3 desc	0	Combustible	English			
14222	1395	affix sub sfx boost elec weap 1	0	Stunning [item]	English			
14223	3138	affix sub sfx boost elec weap 1 desc	0	Stunning	English			
14224	1396	affix sub sfx boost elec weap 2	0	Dazing [item]	English			
14225	1815	affix sub sfx boost elec weap 2 desc	0	Dazing	English			
14226	1397	affix sub sfx boost elec weap 3	0	Staggering [item]	English			
14227	492	affix sub sfx boost elec weap 3 desc	0	Staggering	English			
14228	2213	affix sub sfx boost spec weap 1	0	Spirited [item]	English			
14229	2268	affix sub sfx boost spec weap 1 desc	0	Spirited	English			
14230	2214	affix sub sfx boost spec weap 2	0	Hallowed [item]	English			
14231	945	affix sub sfx boost spec weap 2 desc	0	Hallowed	English			
14232	2215	affix sub sfx boost spec weap 3	0	Consecrated [item]	English			
14233	3718	affix sub sfx boost spec weap 3 desc	0	Consecrated	English			
14234	881	affix sub sfx boost toxic weap 1	0	Contaminated [item]	English			
14235	3224	affix sub sfx boost toxic weap 1 desc	0	Contaminated	English			
14236	882	affix sub sfx boost toxic weap 2	0	Polluted [item]	English			
14237	1901	affix sub sfx boost toxic weap 2 desc	0	Polluted	English			
14238	883	affix sub sfx boost toxic weap 3	0	Radiated [item]	English			
14239	578	affix sub sfx boost toxic weap 3 desc	0	Radiated	English			
14240	202	affix dom knockback augmentation1	0	Forceful [item]	English			
14241	421	affix dom knockback augmentation1 desc	0	Forceful	English			
14242	203	affix dom knockback augmentation2	0	Compelling [item]	English			
14243	3194	affix dom knockback augmentation2 desc	0	Compelling	English			
14244	204	affix dom knockback augmentation3	0	Roundhouse [item]	English			
14245	1871	affix dom knockback augmentation3 desc	0	Roundhouse	English			
14246	2575	affix dom ignite augmentation1	0	Burning [item]	English			
14247	2574	affix dom ignite augmentation1 desc	0	Burning	English			
14248	2576	affix dom ignite augmentation2	0	Igniting [item]	English			
14249	1251	affix dom ignite augmentation2 desc	0	Igniting	English			
14250	2577	affix dom ignite augmentation3	0	Combustable [item]	English			
14251	4024	affix dom ignite augmentation3 desc	0	Combustable	English			
14252	877	affix dom stun augmentation1	0	Stunning [item]	English			
14253	324	affix dom stun augmentation1 desc	0	Stunning	English			
14254	878	affix dom stun augmentation2	0	Dazing [item]	English			
14255	3097	affix dom stun augmentation2 desc	0	Dazing	English			
14256	879	affix dom stun augmentation3	0	Staggering [item]	English			
14257	1774	affix dom stun augmentation3 desc	0	Staggering	English			
14258	1312	affix dom phase augmentation1	0	Spirited [item]	English			
14259	2355	affix dom phase augmentation1 desc	0	Spirited	English			
14260	1313	affix dom phase augmentation2	0	Blessed [item]	English			
14261	1032	affix dom phase augmentation2 desc	0	Blessed	English			
14262	1314	affix dom phase augmentation3	0	Consecrated [item]	English			
14263	3805	affix dom phase augmentation3 desc	0	Consecrated	English			
14264	2051	affix dom poison augmentation1	0	Contaminated [item]	English			
14265	3602	affix dom poison augmentation1 desc	0	Contaminated	English			
14266	2052	affix dom poison augmentation2	0	Polluted [item]	English			
14267	2279	affix dom poison augmentation2 desc	0	Polluted	English			
14268	2053	affix dom poison augmentation3	0	Tainted [item]	English			
14269	956	affix dom poison augmentation3 desc	0	Tainted	English			
14270	509	affix dom knockback boost1	0	Backlashing [item]	English			
14271	3860	affix dom knockback boost1 desc	0	Backlashing	English			
14272	510	affix dom knockback boost2	0	Bullish [item]	English			
14273	2537	affix dom knockback boost2 desc	0	Bullish	English			
14274	511	affix dom knockback boost3	0	Elephantine [item]	English			
14275	1214	affix dom knockback boost3 desc	0	Elephantine	English			
14276	278	affix dom ignite boost1	0	Salamander [item]	English			
14277	2273	affix dom ignite boost1 desc	0	Salamander	English			
14278	279	affix dom ignite boost2	0	Drake [item]	English			
14279	950	affix dom ignite boost2 desc	0	Drake	English			
14280	280	affix dom ignite boost3	0	Dragon [item]	English			
14281	3723	affix dom ignite boost3 desc	0	Dragon	English			
14282	1132	affix dom stun boost1	0	Vayu's [item]	English			
14283	2927	affix dom stun boost1 desc	0	Vayu's	English			
14284	1133	affix dom stun boost2	0	Susanowo's [item]	English			
14285	1604	affix dom stun boost2 desc	0	Susanowo's	English			
14286	1134	affix dom stun boost3	0	Seth's [item]	English			
14287	281	affix dom stun boost3 desc	0	Seth's	English			
14288	3627	affix dom phase boost1	0	Ethereal [item]	English			
14289	3418	affix dom phase boost1 desc	0	Ethereal	English			
14290	3628	affix dom phase boost2	0	Empyrean [item]	English			
14291	2095	affix dom phase boost2 desc	0	Empyrean	English			
14292	3629	affix dom phase boost3	0	Celestial [item]	English			
14293	772	affix dom phase boost3 desc	0	Celestial	English			
14294	474	affix dom poison boost1	0	Blighted [item]	English			
14295	1013	affix dom poison boost1 desc	0	Blighted	English			
14296	475	affix dom poison boost2	0	Debased [item]	English			
14297	3786	affix dom poison boost2 desc	0	Debased	English			
14298	476	affix dom poison boost3	0	Stained [item]	English			
14299	2463	affix dom poison boost3 desc	0	Stained	English			
14300	2783	affix sub shield penetration 1	0	Perforating [item]	English			
14301	1822	affix sub shield penetration 1 desc	0	Perforating	English			
14302	2784	affix sub shield penetration 2	0	Piercing [item]	English			
14303	499	affix sub shield penetration 2 desc	0	Piercing	English			
14304	2785	affix sub shield penetration 3	0	Penetrating [item]	English			
14305	3272	affix sub shield penetration 3 desc	0	Penetrating	English			
14306	4082	affix sub shield destruction 1	0	Disrupting [item]	English			
14307	3565	affix sub shield destruction 1 desc	0	Disrupting	English			
14308	4083	affix sub shield destruction 2	0	Subverting [item]	English			
14309	2242	affix sub shield destruction 2 desc	0	Subverting	English			
14310	4084	affix sub shield destruction 3	0	Demolishing [item]	English			
14311	919	affix sub shield destruction 3 desc	0	Demolishing	English			
14312	1590	affix sub missile vel bonus weap 1	0	Slingshot [item]	English			
14313	3201	affix sub missile vel bonus weap 1 desc	0	Slingshot	English			
14314	1591	affix sub missile vel bonus weap 2	0	Linear Accelerated [item]	English			
14315	1878	affix sub missile vel bonus weap 2 desc	0	Linear Accelerated	English			
14316	1592	affix sub missile vel bonus weap 3	0	Railed [item]	English			
14317	555	affix sub missile vel bonus weap 3 desc	0	Railed	English			
14318	287	affix dom missile vel bonus rocket 1	0	Forceful [item]	English			
14319	2654	affix dom missile vel bonus rocket 1 desc	0	Forceful	English			
14320	288	affix dom missile vel bonus rocket 2	0	Dynamic [item]	English			
14321	1331	affix dom missile vel bonus rocket 2 desc	0	Dynamic	English			
14322	289	affix dom missile vel bonus rocket 3	0	Kinetic [item]	English			
14323	8	affix dom missile vel bonus rocket 3 desc	0	Kinetic	English			
14324	136	affix dom radius add mod 1	0	Detonating [item]	English			
14325	1723	affix dom radius add mod 1 desc	0	Detonating	English			
14326	137	affix dom radius add mod 2	0	Demolishing [item]	English			
14327	400	affix dom radius add mod 2 desc	0	Demolishing	English			
14328	2037	affix sub radius boost weap 1	0	Extracircumferential [item]	English			
14329	1644	affix sub radius boost weap 1 desc	0	Extracircumferential	English			
14330	2038	affix sub radius boost weap 2	0	Supercircumferential [item]	English			
14331	321	affix sub radius boost weap 2 desc	0	Supercircumferential	English			
14332	2039	affix sub radius boost weap 3	0	Megacircumferential [item]	English			
14333	3094	affix sub radius boost weap 3 desc	0	Megacircumferential	English			
14334	3606	affix dom radius boost mod 1	0	Expanded [item]	English			
14335	2529	affix dom radius boost mod 1 desc	0	Expanded	English			
14336	3607	affix dom radius boost mod 2	0	Diffused [item]	English			
14337	1206	affix dom radius boost mod 2 desc	0	Diffused	English			
14338	3608	affix dom radius boost mod 3	0	Amplified [item]	English			
14339	3979	affix dom radius boost mod 3 desc	0	Amplified	English			
14340	1581	affix sub range boost 1	0	Aligned [item]	English			
14341	2820	affix sub range boost 1 desc	0	Aligned	English			
14342	1582	affix sub range boost 2	0	Ranged [item]	English			
14343	1497	affix sub range boost 2 desc	0	Ranged	English			
14344	1583	affix sub range boost 3	0	Telescopic [item]	English			
14345	174	affix sub range boost 3 desc	0	Telescopic	English			
14346	1171	affix dom range boost tech 1	0	Range Augmentation [item]	English			
14347	482	affix dom range boost tech 1 desc	0	Range Augmentation	English			
14348	1172	affix dom range boost tech 2	0	Range Enhancement [item]	English			
14349	3255	affix dom range boost tech 2 desc	0	Range Enhancement	English			
14350	1173	affix dom range boost tech 3	0	Range Maximization [item]	English			
14351	1932	affix dom range boost tech 3 desc	0	Range Maximization	English			
14352	522	affix dom range boost relic 1	0	Minor Farsight [item]	English			
14353	3045	affix dom range boost relic 1 desc	0	Minor Farsight	English			
14354	523	affix dom range boost relic 2	0	Farsight [item]	English			
14355	1722	affix dom range boost relic 2 desc	0	Farsight	English			
14356	524	affix dom range boost relic 3	0	Major Farsight [item]	English			
14357	399	affix dom range boost relic 3 desc	0	Major Farsight	English			
14358	680	affix sub precision bonus 1	0	Hunter's [item]	English			
14359	2907	affix sub precision bonus 1 desc	0	Hunter's	English			
14360	681	affix sub precision bonus 2	0	Sharpshooter's [item]	English			
14361	1584	affix sub precision bonus 2 desc	0	Sharpshooter's	English			
14362	682	affix sub precision bonus 3	0	Marksman's [item]	English			
14363	261	affix sub precision bonus 3 desc	0	Marksman's	English			
14364	1290	affix dom precision bonus tech 1	0	Precision Augmentation [item]	English			
14365	2789	affix dom precision bonus tech 1 desc	0	Precision Augmentation	English			
14366	1291	affix dom precision bonus tech 2	0	Precision Enhancement [item]	English			
14367	1466	affix dom precision bonus tech 2 desc	0	Precision Enhancement	English			
14368	1292	affix dom precision bonus tech 3	0	Precision Maximization [item]	English			
14369	143	affix dom precision bonus tech 3 desc	0	Precision Maximization	English			
14370	2734	affix sub consistency bonus 1	0	Accurate [item]	English			
14371	1113	affix sub consistency bonus 1 desc	0	Accurate	English			
14372	2735	affix sub consistency bonus 2	0	Precise [item]	English			
14373	3886	affix sub consistency bonus 2 desc	0	Precise	English			
14374	2736	affix sub consistency bonus 3	0	Veracious [item]	English			
14375	2563	affix sub consistency bonus 3 desc	0	Veracious	English			
14376	3347	affix sub consistency bonus beam 1	0	Steady [item]	English			
14377	1122	affix sub consistency bonus beam 1 desc	0	Steady	English			
14378	3348	affix sub consistency bonus beam 2	0	Consistent [item]	English			
14379	3895	affix sub consistency bonus beam 2 desc	0	Consistent	English			
14380	3349	affix sub consistency bonus beam 3	0	Faultless [item]	English			
14381	2572	affix sub consistency bonus beam 3 desc	0	Faultless	English			
14382	2819	affix sub DamageSkillGroup_Blademaster1	0	Sharp [item]	English			
14383	3346	affix sub DamageSkillGroup_Blademaster1 desc	0	Sharp	English			
14384	2820	affix sub DamageSkillGroup_Blademaster2	0	Sharper [item]	English			
14385	2023	affix sub DamageSkillGroup_Blademaster2 desc	0	Sharper	English			
14386	2821	affix sub DamageSkillGroup_Blademaster3	0	Sharpened [item]	English			
14387	700	affix sub DamageSkillGroup_Blademaster3 desc	0	Sharpened	English			
14388	2326	affix sub DamageSkillGroup_Guardian1	0	Forceful [item]	English			
14389	225	affix sub DamageSkillGroup_Guardian1 desc	0	Forceful	English			
14390	2327	affix sub DamageSkillGroup_Guardian2	0	Forceful II [item]	English			
14391	2998	affix sub DamageSkillGroup_Guardian2 desc	0	Forceful II	English			
14392	2328	affix sub DamageSkillGroup_Guardian3	0	Forceful III [item]	English			
14393	1675	affix sub DamageSkillGroup_Guardian3 desc	0	Forceful III	English			
14394	1137	affix sub DamageSkillGroup_Marksman1	0	Smithed [item]	English			
14395	408	affix sub DamageSkillGroup_Marksman1 desc	0	Smithed	English			
14396	1138	affix sub DamageSkillGroup_Marksman2	0	Gunsmithed [item]	English			
14397	3181	affix sub DamageSkillGroup_Marksman2 desc	0	Gunsmithed	English			
14398	1139	affix sub DamageSkillGroup_Marksman3	0	Sighted [item]	English			
14399	1858	affix sub DamageSkillGroup_Marksman3 desc	0	Sighted	English			
14400	800	affix sub DamageSkillGroup_Engineer1	0	Restored [item]	English			
14401	3891	affix sub DamageSkillGroup_Engineer1 desc	0	Restored	English			
14402	801	affix sub DamageSkillGroup_Engineer2	0	Restored II [item]	English			
14403	2568	affix sub DamageSkillGroup_Engineer2 desc	0	Restored II	English			
14404	802	affix sub DamageSkillGroup_Engineer3	0	Restored III [item]	English			
14405	1245	affix sub DamageSkillGroup_Engineer3 desc	0	Restored III	English			
14406	499	affix sub DamageSkillGroup_Evoker1	0	Augmented [item]	English			
14407	706	affix sub DamageSkillGroup_Evoker1 desc	0	Augmented	English			
14408	500	affix sub DamageSkillGroup_Evoker2	0	Increscent [item]	English			
14409	3479	affix sub DamageSkillGroup_Evoker2 desc	0	Increscent	English			
14410	501	affix sub DamageSkillGroup_Evoker3	0	Magnified [item]	English			
14411	2156	affix sub DamageSkillGroup_Evoker3 desc	0	Magnified	English			
14412	3064	affix sub stealth melee dam 1	0	Coiled [item]	English			
14413	2795	affix sub stealth melee dam 1 desc	0	Coiled	English			
14414	3065	affix sub stealth melee dam 2	0	Serpentine [item]	English			
14415	1472	affix sub stealth melee dam 2 desc	0	Serpentine	English			
14416	3066	affix sub stealth melee dam 3	0	Zig Zag [item]	English			
14417	149	affix sub stealth melee dam 3 desc	0	Zig Zag	English			
14418	2531	affix sub nasty	0	Fouled [item]	English			
14419	3442	affix sub nasty desc	0	Fouled	English			
14420	936	affix sub filthy	0	Blackened [item]	English			
14421	91	affix sub filthy desc	0	Blackened	English			
14422	1253	affix sub orbcooldown 1	0	Accelerated [item]	English			
14423	2588	affix sub orbcooldown 1 desc	0	Accelerated	English			
14424	1254	affix sub orbcooldown 2	0	Ardent [item]	English			
14425	1265	affix sub orbcooldown 2 desc	0	Ardent	English			
14426	1255	affix sub orbcooldown 3	0	Expeditious [item]	English			
14427	4038	affix sub orbcooldown 3 desc	0	Expeditious	English			
14428	614	affix sub orbpowercost 1	0	Avaricious [item]	English			
14429	113	affix sub orbpowercost 1 desc	0	Avaricious	English			
14430	615	affix sub orbpowercost 2	0	Rapacious [item]	English			
14431	2886	affix sub orbpowercost 2 desc	0	Rapacious	English			
14432	616	affix sub orbpowercost 3	0	Parsimonious [item]	English			
14433	1563	affix sub orbpowercost 3 desc	0	Parsimonious	English			
14434	1524	affix sub prayer level 1	0		English			
14435	407	affix sub prayer level 1 desc	0		English			
14436	1525	affix sub prayer level 2	0		English			
14437	3180	affix sub prayer level 2 desc	0		English			
14438	1817	affix sub prayer cooldown 1	0	Prayerflash [item]	English			
14439	1888	affix sub prayer cooldown 1 desc	0	Prayerflash	English			
14440	1818	affix sub prayer cooldown 2	0	Prayerfury [item]	English			
14441	565	affix sub prayer cooldown 2 desc	0	Prayerfury	English			
14442	1819	affix sub prayer cooldown 3	0	Prayerfrenzy [item]	English			
14443	3338	affix sub prayer cooldown 3 desc	0	Prayerfrenzy	English			
14444	1002	affix sub prayer powercost 1	0	Prayerzing [item]	English			
14445	2885	affix sub prayer powercost 1 desc	0	Prayerzing	English			
14446	1003	affix sub prayer powercost 2	0	Prayerzest [item]	English			
14447	1562	affix sub prayer powercost 2 desc	0	Prayerzest	English			
14448	1004	affix sub prayer powercost 3	0	Prayerzeal [item]	English			
14449	239	affix sub prayer powercost 3 desc	0	Prayerzeal	English			
14450	3640	affix sub marksman cooldown 1	0	Triggered [item]	English			
14451	2603	affix sub marksman cooldown 1 desc	0	Triggered	English			
14452	3641	affix sub marksman cooldown 2	0	Quickdrawn [item]	English			
14453	1280	affix sub marksman cooldown 2 desc	0	Quickdrawn	English			
14454	3642	affix sub marksman cooldown 3	0	Snapshot [item]	English			
14455	4053	affix sub marksman cooldown 3 desc	0	Snapshot	English			
14456	2917	affix sub marksman powercost 1	0	Sparing [item]	English			
14457	668	affix sub marksman powercost 1 desc	0	Sparing	English			
14458	2918	affix sub marksman powercost 2	0	Efficient [item]	English			
14459	3441	affix sub marksman powercost 2 desc	0	Efficient	English			
14460	2919	affix sub marksman powercost 3	0	Spartan [item]	English			
14461	2118	affix sub marksman powercost 3 desc	0	Spartan	English			
14462	1346	affix sub blademaster cooldown 1	0	Glorified [item]	English			
14463	2429	affix sub blademaster cooldown 1 desc	0	Glorified	English			
14464	1347	affix sub blademaster cooldown 2	0	Exalted [item]	English			
14465	1106	affix sub blademaster cooldown 2 desc	0	Exalted	English			
14466	1348	affix sub blademaster cooldown 3	0	Zealous [item]	English			
14467	3879	affix sub blademaster cooldown 3 desc	0	Zealous	English			
14468	4055	affix sub blademaster powercost 1	0	Moderate [item]	English			
14469	2422	affix sub blademaster powercost 1 desc	0	Moderate	English			
14470	4056	affix sub blademaster powercost 2	0	Practical [item]	English			
14471	1099	affix sub blademaster powercost 2 desc	0	Practical	English			
14472	4057	affix sub blademaster powercost 3	0	Miserly [item]	English			
14473	3872	affix sub blademaster powercost 3 desc	0	Miserly	English			
14474	717	affix dom acc tech	0	Optic Enhancement [item]	English			
14475	3108	affix dom acc tech desc	0	Optic Enhancement	English			
14476	990	affix dom str relic	0	Strength [item]	English			
14477	2377	affix dom str relic desc	0	Strength	English			
14478	2849	affix dom will relic	0	Arcane [item]	English			
14479	520	affix dom will relic desc	0	Arcane	English			
14480	3569	affix sub acc armor 1	0	Refined [item]	English			
14481	2328	affix sub acc armor 1 desc	0	Refined	English			
14482	3570	affix sub acc armor 2	0	Eagle's [item]	English			
14483	1005	affix sub acc armor 2 desc	0	Eagle's	English			
14484	3571	affix sub acc armor 3	0	Falcon's [item]	English			
14485	3778	affix sub acc armor 3 desc	0	Falcon's	English			
14486	3572	affix sub acc armor 4	0	Zephyr's [item]	English			
14487	2455	affix sub acc armor 4 desc	0	Zephyr's	English			
14488	2551	affix sub str armor 1	0	Burly [item]	English			
14489	1558	affix sub str armor 1 desc	0	Burly	English			
14490	2552	affix sub str armor 2	0	Hound's [item]	English			
14491	235	affix sub str armor 2 desc	0	Hound's	English			
14492	2553	affix sub str armor 3	0	Tiger's [item]	English			
14493	3008	affix sub str armor 3 desc	0	Tiger's	English			
14494	2554	affix sub str armor 4	0	Lionheart [item]	English			
14495	1685	affix sub str armor 4 desc	0	Lionheart	English			
14496	2310	affix sub sta armor 1	0	Mammoth's [item]	English			
14497	913	affix sub sta armor 1 desc	0	Mammoth's	English			
14498	2311	affix sub sta armor 2	0	Titan's [item]	English			
14499	3686	affix sub sta armor 2 desc	0	Titan's	English			
14500	2312	affix sub sta armor 3	0	Juggernaut's [item]	English			
14501	2363	affix sub sta armor 3 desc	0	Juggernaut's	English			
14502	2313	affix sub sta armor 4	0	Leviathan's [item]	English			
14503	1040	affix sub sta armor 4 desc	0	Leviathan's	English			
14504	298	affix sub will armor 1	0	Clever [item]	English			
14505	389	affix sub will armor 1 desc	0	Clever	English			
14506	299	affix sub will armor 2	0	Friar's [item]	English			
14507	3162	affix sub will armor 2 desc	0	Friar's	English			
14508	300	affix sub will armor 3	0	Bishop's [item]	English			
14509	1839	affix sub will armor 3 desc	0	Bishop's	English			
14510	301	affix sub will armor 4	0	Archbishop's [item]	English			
14511	516	affix sub will armor 4 desc	0	Archbishop's	English			
14512	3327	affix sub all stat armor scaled 1	0	Bold [item]	English			
14513	3006	affix sub all stat armor scaled 1 desc	0	Bold	English			
14514	3328	affix sub all stat armor scaled 2	0	Courageous [item]	English			
14515	1683	affix sub all stat armor scaled 2 desc	0	Courageous	English			
14516	3329	affix sub all stat armor scaled 3	0	Fearless [item]	English			
14517	360	affix sub all stat armor scaled 3 desc	0	Fearless	English			
14518	946	affix sub all stat armor_fixed 1	0	Traveler's [item]	English			
14519	3245	affix sub all stat armor_fixed 1 desc	0	Traveler's	English			
14520	951	affix sub all stat armor_fixed 6	0	Madcap's [item]	English			
14521	726	affix sub all stat armor_fixed 6 desc	0	Madcap's	English			
14522	3550	affix sub hp armor 1	0	Healthy [item]	English			
14523	2889	affix sub hp armor 1 desc	0	Healthy	English			
14524	3551	affix sub hp armor 2	0	Bountiful [item]	English			
14525	1566	affix sub hp armor 2 desc	0	Bountiful	English			
14526	3552	affix sub hp armor 3	0	Robust [item]	English			
14527	243	affix sub hp armor 3 desc	0	Robust	English			
14528	3553	affix sub hp armor 4	0	Vigorous [item]	English			
14529	3016	affix sub hp armor 4 desc	0	Vigorous	English			
14530	313	affix sub hp armor_fixed 1	0	Medic's [item]	English			
14531	1024	affix sub hp armor_fixed 1 desc	0	Medic's	English			
14532	314	affix sub hp armor_fixed 2	0	Intern's [item]	English			
14533	3797	affix sub hp armor_fixed 2 desc	0	Intern's	English			
14534	315	affix sub hp armor_fixed 3	0	Doctor's [item]	English			
14535	2474	affix sub hp armor_fixed 3 desc	0	Doctor's	English			
14536	316	affix sub hp armor_fixed 4	0	Physician's [item]	English			
14537	1151	affix sub hp armor_fixed 4 desc	0	Physician's	English			
14538	317	affix sub hp armor_fixed 5	0	Surgeon's [item]	English			
14539	3924	affix sub hp armor_fixed 5 desc	0	Surgeon's	English			
14540	318	affix sub hp armor_fixed 6	0	Sawbones [item]	English			
14541	2601	affix sub hp armor_fixed 6 desc	0	Sawbones	English			
14542	81	affix sub hp pct armor 1	0	Sustaining [item]	English			
14543	760	affix sub hp pct armor 1 desc	0	Sustaining	English			
14544	82	affix sub hp pct armor 2	0	Restorative [item]	English			
14545	3533	affix sub hp pct armor 2 desc	0	Restorative	English			
14546	83	affix sub hp pct armor 3	0	Bracing [item]	English			
14547	2210	affix sub hp pct armor 3 desc	0	Bracing	English			
14548	3873	affix sub health regen armor 1	0	Healing [item]	English			
14549	1544	affix sub health regen armor 1 desc	0	Healing	English			
14550	3874	affix sub health regen armor 2	0	Medicant [item]	English			
14551	221	affix sub health regen armor 2 desc	0	Medicant	English			
14552	3875	affix sub health regen armor 3	0	Panacea [item]	English			
14553	2994	affix sub health regen armor 3 desc	0	Panacea	English			
14554	1779	affix sub power armor 1	0	Energizing [item]	English			
14555	3010	affix sub power armor 1 desc	0	Energizing	English			
14556	1780	affix sub power armor 2	0	Invigorating [item]	English			
14557	1687	affix sub power armor 2 desc	0	Invigorating	English			
14558	1781	affix sub power armor 3	0	Supercharged [item]	English			
14559	364	affix sub power armor 3 desc	0	Supercharged	English			
14560	1782	affix sub power armor 4	0	Hypercharged [item]	English			
14561	3137	affix sub power armor 4 desc	0	Hypercharged	English			
14562	694	affix sub power armor_fixed 1	0	Tutor's [item]	English			
14563	769	affix sub power armor_fixed 1 desc	0	Tutor's	English			
14564	695	affix sub power armor_fixed 2	0	Maven's [item]	English			
14565	3542	affix sub power armor_fixed 2 desc	0	Maven's	English			
14566	696	affix sub power armor_fixed 3	0	Pundit's [item]	English			
14567	2219	affix sub power armor_fixed 3 desc	0	Pundit's	English			
14568	697	affix sub power armor_fixed 4	0	Instructor's [item]	English			
14569	896	affix sub power armor_fixed 4 desc	0	Instructor's	English			
14570	698	affix sub power armor_fixed 5	0	Savant's [item]	English			
14571	3669	affix sub power armor_fixed 5 desc	0	Savant's	English			
14572	699	affix sub power armor_fixed 6	0	Guru's [item]	English			
14573	2346	affix sub power armor_fixed 6 desc	0	Guru's	English			
14574	1012	affix sub power regen armor 1	0	Recharging [item]	English			
14575	1943	affix sub power regen armor 1 desc	0	Recharging	English			
14576	1013	affix sub power regen armor 2	0	Reviving [item]	English			
14577	620	affix sub power regen armor 2 desc	0	Reviving	English			
14578	1014	affix sub power regen armor 3	0	Ameliorating [item]	English			
14579	3393	affix sub power regen armor 3 desc	0	Ameliorating	English			
14580	1206	affix sub speed 1	0	Agile [item]	English			
14581	3329	affix sub speed 1 desc	0	Agile	English			
14582	1207	affix sub speed 2	0	Spry [item]	English			
14583	2006	affix sub speed 2 desc	0	Spry	English			
14584	1208	affix sub speed 3	0	Nimble [item]	English			
14585	683	affix sub speed 3 desc	0	Nimble	English			
14586	1209	affix sub speed 4	0	Quicksilver [item]	English			
14587	3456	affix sub speed 4 desc	0	Quicksilver	English			
14588	92	affix sub luck 1	0	Lucky [item]	English			
14589	2591	affix sub luck 1 desc	0	Lucky	English			
14590	93	affix sub luck 2	0	Fortunate [item]	English			
14591	1268	affix sub luck 2 desc	0	Fortunate	English			
14592	94	affix sub luck 3	0	Prosperous [item]	English			
14593	4041	affix sub luck 3 desc	0	Prosperous	English			
14594	1044	affix sub phys defense armor 1	0	Stabilizing [item]	English			
14595	567	affix sub phys defense armor 1 desc	0	Stabilizing	English			
14596	1045	affix sub phys defense armor 2	0	Braced [item]	English			
14597	3340	affix sub phys defense armor 2 desc	0	Braced	English			
14598	1046	affix sub phys defense armor 3	0	Steadied [item]	English			
14599	2017	affix sub phys defense armor 3 desc	0	Steadied	English			
14600	58	affix sub fire defense armor 1	0	Extinguishing [item]	English			
14601	2517	affix sub fire defense armor 1 desc	0	Extinguishing	English			
14602	59	affix sub fire defense armor 2	0	Dousing [item]	English			
14603	1194	affix sub fire defense armor 2 desc	0	Dousing	English			
14604	60	affix sub fire defense armor 3	0	Stifling [item]	English			
14605	3967	affix sub fire defense armor 3 desc	0	Stifling	English			
14606	965	affix sub elec defense armor 1	0	Resistant [item]	English			
14607	2684	affix sub elec defense armor 1 desc	0	Resistant	English			
14608	966	affix sub elec defense armor 2	0	Shielded [item]	English			
14609	1361	affix sub elec defense armor 2 desc	0	Shielded	English			
14610	967	affix sub elec defense armor 3	0	Grounded [item]	English			
14611	38	affix sub elec defense armor 3 desc	0	Grounded	English			
14612	191	affix sub spec defense armor 1	0	Synchronized [item]	English			
14613	2686	affix sub spec defense armor 1 desc	0	Synchronized	English			
14614	192	affix sub spec defense armor 2	0	Harmonic [item]	English			
14615	1363	affix sub spec defense armor 2 desc	0	Harmonic	English			
14616	193	affix sub spec defense armor 3	0	Concordant [item]	English			
14617	40	affix sub spec defense armor 3 desc	0	Concordant	English			
14618	1627	affix sub toxic defense armor 1	0	Vaccinating [item]	English			
14619	3402	affix sub toxic defense armor 1 desc	0	Vaccinating	English			
14620	1628	affix sub toxic defense armor 2	0	Immunizing [item]	English			
14621	2079	affix sub toxic defense armor 2 desc	0	Immunizing	English			
14622	1629	affix sub toxic defense armor 3	0	Inoculating [item]	English			
14623	756	affix sub toxic defense armor 3 desc	0	Inoculating	English			
14624	664	affix sub total defense armor 1	0	Primal [item]	English			
14625	3595	affix sub total defense armor 1 desc	0	Primal	English			
14626	665	affix sub total defense armor 2	0	Chromatic [item]	English			
14627	2272	affix sub total defense armor 2 desc	0	Chromatic	English			
14628	666	affix sub total defense armor 3	0	Kaleidoscopic [item]	English			
14629	949	affix sub total defense armor 3 desc	0	Kaleidoscopic	English			
14630	3436	affix sub armor aug 1 small	0	Guarded [item]	English			
14631	2159	affix sub armor aug 1 small desc	0	Guarded	English			
14632	674	affix sub armor aug 1 large	0	Protected [item]	English			
14633	2653	affix sub armor aug 1 large desc	0	Protected	English			
14634	3637	affix sub armor aug 2 small	0	Solid [item]	English			
14635	2476	affix sub armor aug 2 small desc	0	Solid	English			
14636	875	affix sub armor aug 2 large	0	Resolute [item]	English			
14637	2970	affix sub armor aug 2 large desc	0	Resolute	English			
14638	3838	affix sub armor aug 3 small	0	Secure [item]	English			
14639	2793	affix sub armor aug 3 small desc	0	Secure	English			
14640	1076	affix sub armor aug 3 large	0	Impregnable [item]	English			
14641	3287	affix sub armor aug 3 large desc	0	Impregnable	English			
14642	4072	affix sub shield aug 1 small	0	Buffering [item]	English			
14643	411	affix sub shield aug 1 small desc	0	Buffering	English			
14644	1310	affix sub shield aug 1 large	0	Barricading [item]	English			
14645	905	affix sub shield aug 1 large desc	0	Barricading	English			
14646	177	affix sub shield aug 2 small	0	Absorbing [item]	English			
14647	728	affix sub shield aug 2 small desc	0	Absorbing	English			
14648	1511	affix sub shield aug 2 large	0	Assimilating [item]	English			
14649	1222	affix sub shield aug 2 large desc	0	Assimilating	English			
14650	378	affix sub shield aug 3 small	0	Redirecting [item]	English			
14651	1045	affix sub shield aug 3 small desc	0	Redirecting	English			
14652	1712	affix sub shield aug 3 large	0	Ablative [item]	English			
14653	1539	affix sub shield aug 3 large desc	0	Ablative 	English			
14654	818	affix sub total armor 1	0	Statuesque [item]	English			
14655	557	affix sub total armor 1 desc	0	Statuesque	English			
14656	819	affix sub total armor 2	0	Monolithic [item]	English			
14657	3330	affix sub total armor 2 desc	0	Monolithic	English			
14658	820	affix sub total armor 3	0	Colossal [item]	English			
14659	2007	affix sub total armor 3 desc	0	Colossal	English			
14660	1488	affix sub thorns phys armor 1	0	Barbed [item]	English			
14661	2979	affix sub thorns phys armor 1 desc	0	Barbed	English			
14662	1489	affix sub thorns phys armor 2	0	Asperous [item]	English			
14663	1656	affix sub thorns phys armor 2 desc	0	Asperous	English			
14664	1490	affix sub thorns phys armor 3	0	Thorned [item]	English			
14665	333	affix sub thorns phys armor 3 desc	0	Thorned 	English			
14666	3254	affix sub thorns fire armor 1	0	Fevered [item]	English			
14667	1281	affix sub thorns fire armor 1 desc	0	Fevered	English			
14668	3255	affix sub thorns fire armor 2	0	Febrile [item]	English			
14669	4054	affix sub thorns fire armor 2 desc	0	Febrile	English			
14670	3256	affix sub thorns fire armor 3	0	Pyretic [item]	English			
14671	2731	affix sub thorns fire armor 3 desc	0	Pyretic	English			
14672	3233	affix sub thorns elec armor 1	0	Powered [item]	English			
14673	392	affix sub thorns elec armor 1 desc	0	Powered	English			
14674	3234	affix sub thorns elec armor 2	0	Electrostatic [item]	English			
14675	3165	affix sub thorns elec armor 2 desc	0	Electrostatic	English			
14676	3235	affix sub thorns elec armor 3	0	Energized [item]	English			
14677	1842	affix sub thorns elec armor 3 desc	0	Energized 	English			
14678	731	affix sub thorns spec armor 1	0	Ethereal [item]	English			
14679	970	affix sub thorns spec armor 1 desc	0	Ethereal	English			
14680	732	affix sub thorns spec armor 2	0	Empyrean [item]	English			
14681	3743	affix sub thorns spec armor 2 desc	0	Empyrean	English			
14682	733	affix sub thorns spec armor 3	0	Celestial [item]	English			
14683	2420	affix sub thorns spec armor 3 desc	0	Celestial	English			
14684	703	affix sub thorns toxic armor 1	0	Rotted [item]	English			
14685	1150	affix sub thorns toxic armor 1 desc	0	Rotted	English			
14686	704	affix sub thorns toxic armor 2	0	Decomposing [item]	English			
14687	3923	affix sub thorns toxic armor 2 desc	0	Decomposing	English			
14688	705	affix sub thorns toxic armor 3	0	Corroded [item]	English			
14689	2600	affix sub thorns toxic armor 3 desc	0	Corroded	English			
14690	812	affix sub spell_boost duration bonus 1	0	Continuing [item]	English			
14691	303	affix sub spell_boost duration bonus 1 desc	0	Continuing	English			
14692	813	affix sub spell_boost duration bonus 2	0	Prolonging [item]	English			
14693	3076	affix sub spell_boost duration bonus 2 desc	0	Prolonging	English			
14694	814	affix sub spell_boost duration bonus 3	0	Persisting [item]	English			
14695	1753	affix sub spell_boost duration bonus 3 desc	0	Persisting 	English			
14696	2972	affix sub spell_buff duration bonus 1	0	Stretching [item]	English			
14697	1631	affix sub spell_buff duration bonus 1 desc	0	Stretching	English			
14698	2973	affix sub spell_buff duration bonus 2	0	Spanning [item]	English			
14699	308	affix sub spell_buff duration bonus 2 desc	0	Spanning	English			
14700	2974	affix sub spell_buff duration bonus 3	0	Enduring [item]	English			
14701	3081	affix sub spell_buff duration bonus 3 desc	0	Enduring	English			
14702	3923	affix sub spell_curse duration bonus 1	0	Afflicted [item]	English			
14703	930	affix sub spell_curse duration bonus 1 desc	0	Afflicted	English			
14704	3924	affix sub spell_curse duration bonus 2	0	Grievous [item]	English			
14705	3703	affix sub spell_curse duration bonus 2 desc	0	Grievous	English			
14706	3925	affix sub spell_curse duration bonus 3	0	Woeful [item]	English			
14707	2380	affix sub spell_curse duration bonus 3 desc	0	Woeful	English			
14708	979	affix sub pet health bonus 1	0	Agreeable [item]	English			
14709	546	affix sub pet health bonus 1 desc	0	Agreeable	English			
14710	980	affix sub pet health bonus 2	0	Commodious [item]	English			
14711	3319	affix sub pet health bonus 2 desc	0	Commodious	English			
14712	981	affix sub pet health bonus 3	0	Beneficial [item]	English			
14713	1996	affix sub pet health bonus 3 desc	0	Beneficial	English			
14714	202	affix sub pet armor bonus 1	0	Bracing [item]	English			
14715	421	affix sub pet armor bonus 1 desc	0	Bracing	English			
14716	203	affix sub pet armor bonus 2	0	Reinforcing [item]	English			
14717	3194	affix sub pet armor bonus 2 desc	0	Reinforcing	English			
14718	204	affix sub pet armor bonus 3	0	Buttressing [item]	English			
14719	1871	affix sub pet armor bonus 3 desc	0	Buttressing	English			
14720	960	affix sub pet damage bonus 1	0	Acerbic [item]	English			
14721	1107	affix sub pet damage bonus 1 desc	0	Acerbic	English			
14722	961	affix sub pet damage bonus 2	0	Slashing [item]	English			
14723	3880	affix sub pet damage bonus 2 desc	0	Slashing	English			
14724	962	affix sub pet damage bonus 3	0	Scathing [item]	English			
14725	2557	affix sub pet damage bonus 3 desc	0	Scathing	English			
14726	2724	affix sub proc charged bolt nova 1	0	Charged [item]	English			
14727	2055	affix sub proc charged bolt nova 1 desc	0	Charged	English			
14728	2725	affix sub proc charged bolt nova 2	0	Storm [item]	English			
14729	732	affix sub proc charged bolt nova 2 desc	0	Storm	English			
14730	2726	affix sub proc charged bolt nova 3	0	Tempest [item]	English			
14731	3505	affix sub proc charged bolt nova 3 desc	0	Tempest	English			
14732	2000	affix sub proc toxic nova 1	0	Viperous [item]	English			
14733	1443	affix sub proc toxic nova 1 desc	0	Viperous	English			
14734	2001	affix sub proc toxic nova 2	0	Virulent [item]	English			
14735	120	affix sub proc toxic nova 2 desc	0	Virulent	English			
14736	2002	affix sub proc toxic nova 3	0	Venomous [item]	English			
14737	2893	affix sub proc toxic nova 3 desc	0	Venomous	English			
14738	3683	affix sub proc fire nova 1	0	Explosive [item]	English			
14739	3058	affix sub proc fire nova 1 desc	0	Explosive	English			
14740	3684	affix sub proc fire nova 2	0	Charring [item]	English			
14741	1735	affix sub proc fire nova 2 desc	0	Charring	English			
14742	3685	affix sub proc fire nova 3	0	Searing [item]	English			
14743	412	affix sub proc fire nova 3 desc	0	Searing	English			
14744	832	affix sub proc electric nova 1	0	Electric [item]	English			
14745	2515	affix sub proc electric nova 1 desc	0	Electric	English			
14746	833	affix sub proc electric nova 2	0	Static [item]	English			
14747	1192	affix sub proc electric nova 2 desc	0	Static	English			
14748	834	affix sub proc electric nova 3	0	Tempestual [item]	English			
14749	3965	affix sub proc electric nova 3 desc	0	Tempestual	English			
14750	959	affix sub proc spectral nova 1	0	Tempering [item]	English			
14751	2430	affix sub proc spectral nova 1 desc	0	Tempering	English			
14752	960	affix sub proc spectral nova 2	0	Diminishing [item]	English			
14753	1107	affix sub proc spectral nova 2 desc	0	Diminishing	English			
14754	961	affix sub proc spectral nova 3	0	Weakening [item]	English			
14755	3880	affix sub proc spectral nova 3 desc	0	Weakening	English			
14756	1106	affix sub proc arc jumper 1	0	Thundering [item]	English			
14757	461	affix sub proc arc jumper 1 desc	0	Thundering	English			
14758	1107	affix sub proc arc jumper 2	0	Striking [item]	English			
14759	3234	affix sub proc arc jumper 2 desc	0	Striking	English			
14760	1108	affix sub proc arc jumper 3	0	Bolting [item]	English			
14761	1911	affix sub proc arc jumper 3 desc	0	Bolting	English			
14762	3018	affix sub proc blaze pistol 1	0	Blasting [item]	English			
14763	2213	affix sub proc blaze pistol 1 desc	0	Blasting	English			
14764	3019	affix sub proc blaze pistol 2	0	Exploding [item]	English			
14765	890	affix sub proc blaze pistol 2 desc	0	Exploding	English			
14766	3020	affix sub proc blaze pistol 3	0	Eruptive [item]	English			
14767	3663	affix sub proc blaze pistol 3 desc	0	Eruptive	English			
14768	2922	affix sub proc frag blaster 1	0	Bouncing [item]	English			
14769	2245	affix sub proc frag blaster 1 desc	0	Bouncing	English			
14770	2923	affix sub proc frag blaster 2	0	Reflecting [item]	English			
14771	922	affix sub proc frag blaster 2 desc	0	Reflecting	English			
14772	2924	affix sub proc frag blaster 3	0	Ricochet [item]	English			
14773	3695	affix sub proc frag blaster 3 desc	0	Ricochet	English			
14774	2878	affix sub proc morbid fang 1	0	Gruesome [item]	English			
14775	3113	affix sub proc morbid fang 1 desc	0	Gruesome	English			
14776	2879	affix sub proc morbid fang 2	0	Morbid [item]	English			
14777	1790	affix sub proc morbid fang 2 desc	0	Morbid	English			
14778	2880	affix sub proc morbid fang 3	0	Agonizing [item]	English			
14779	467	affix sub proc morbid fang 3 desc	0	Agonizing	English			
14780	751	affix sub proc hyper slicer 1	0	Crippling [item]	English			
14781	3182	affix sub proc hyper slicer 1 desc	0	Crippling	English			
14782	752	affix sub proc hyper slicer 2	0	Enervating [item]	English			
14783	1859	affix sub proc hyper slicer 2 desc	0	Enervating	English			
14784	753	affix sub proc hyper slicer 3	0	Debilitating [item]	English			
14785	536	affix sub proc hyper slicer 3 desc	0	Debilitating	English			
14786	3984	affix sub skillgrant Swiftness Boost	0	Swift [item]	English			
14787	2147	affix sub skillgrant Swiftness Boost desc	0	Swift	English			
14788	27	affix sub skillgrant	0	Able [item]	English			
14789	2570	affix sub skillgrant desc	0	Able	English			
14790	728	affix sub skillgroup boost Evoker1	0	Theurgist's [item]	English			
14791	843	affix sub skillgroup boost Evoker1 desc	0	Theurgist's	English			
14792	729	affix sub skillgroup boost Evoker2	0	Archmage's [item]	English			
14793	3616	affix sub skillgroup boost Evoker2 desc	0	Archmage's	English			
14794	730	affix sub skillgroup boost Evoker3	0	Arcanist's [item]	English			
14795	2293	affix sub skillgroup boost Evoker3 desc	0	Arcanist's	English			
14796	3366	affix sub skillgroup boost Summoner1	0	Bringer's [item]	English			
14797	561	affix sub skillgroup boost Summoner1 desc	0	Bringer's	English			
14798	3367	affix sub skillgroup boost Summoner2	0	Convoker's [item]	English			
14799	3334	affix sub skillgroup boost Summoner2 desc	0	Convoker's	English			
14800	3368	affix sub skillgroup boost Summoner3	0	Spiritbinder's [item]	English			
14801	2011	affix sub skillgroup boost Summoner3 desc	0	Spiritbinder's	English			
14802	3342	affix sub skillgroup boost Marksman1	0	Skirmisher's [item]	English			
14803	3641	affix sub skillgroup boost Marksman1 desc	0	Skirmisher's	English			
14804	3343	affix sub skillgroup boost Marksman2	0	Shootist's [item]	English			
14805	2318	affix sub skillgroup boost Marksman2 desc	0	Shootist's	English			
14806	3344	affix sub skillgroup boost Marksman3	0	Sniper's [item]	English			
14807	995	affix sub skillgroup boost Marksman3 desc	0	Sniper's	English			
14808	3005	affix sub skillgroup boost Engineer1	0	Pioneer's [item]	English			
14809	3028	affix sub skillgroup boost Engineer1 desc	0	Pioneer's	English			
14810	3006	affix sub skillgroup boost Engineer2	0	Sapper's [item]	English			
14811	1705	affix sub skillgroup boost Engineer2 desc	0	Sapper's	English			
14812	3007	affix sub skillgroup boost Engineer3	0	Engineer's [item]	English			
14813	382	affix sub skillgroup boost Engineer3 desc	0	Engineer's	English			
14814	2956	affix sub skillgroup boost Blademaster1	0	Gladiator's [item]	English			
14815	2319	affix sub skillgroup boost Blademaster1 desc	0	Gladiator's	English			
14816	2957	affix sub skillgroup boost Blademaster2	0	Duelist's [item]	English			
14817	996	affix sub skillgroup boost Blademaster2 desc	0	Duelist's	English			
14818	2958	affix sub skillgroup boost Blademaster3	0	Champion's [item]	English			
14819	3769	affix sub skillgroup boost Blademaster3 desc	0	Champion's	English			
14820	435	affix sub skillgroup boost Guardian1	0	Hero's [item]	English			
14821	3458	affix sub skillgroup boost Guardian1 desc	0	Hero's	English			
14822	436	affix sub skillgroup boost Guardian2	0	Lord's [item]	English			
14823	2135	affix sub skillgroup boost Guardian2 desc	0	Lord's	English			
14824	437	affix sub skillgroup boost Guardian3	0	Grand Master's [item]	English			
14825	812	affix sub skillgroup boost Guardian3 desc	0	Grand Master's	English			
14826	1332	affix sub skillgrant 1	0	Skillful [item]	English			
14827	471	affix sub skillgrant 1 desc	0	Skillful	English			
14828	1333	affix sub skillgrant 2	0	Proficient [item]	English			
14829	3244	affix sub skillgrant 2 desc	0	Proficient	English			
14830	1334	affix sub skillgrant 3	0	Masterful [item]	English			
14831	1921	affix sub skillgrant 3 desc	0	Masterful	English			
14832	3306	affix sub critical defense 1	0	Shielding [item]	English			
14833	2117	affix sub critical defense 1 desc	0	Shielding	English			
14834	3307	affix sub critical defense 2	0	Guarding [item]	English			
14835	794	affix sub critical defense 2 desc	0	Guarding	English			
14836	3308	affix sub critical defense 3	0	Sheltering [item]	English			
14837	3567	affix sub critical defense 3 desc	0	Sheltering	English			
14838	2201	affix sub shield regeneration 1	0	Charging [item]	English			
14839	1760	affix sub shield regeneration 1 desc	0	Charging	English			
14840	2202	affix sub shield regeneration 2	0	Powering [item]	English			
14841	437	affix sub shield regeneration 2 desc	0	Powering	English			
14842	2203	affix sub shield regeneration 3	0	Renewing [item]	English			
14843	3210	affix sub shield regeneration 3 desc	0	Renewing	English			
14844	451	affix sub armor penetration 1	0	Borer's [item]	English			
14845	2770	affix sub armor penetration 1 desc	0	Borer's	English			
14846	452	affix sub armor penetration 2	0	Driller's [item]	English			
14847	1447	affix sub armor penetration 2 desc	0	Driller's	English			
14848	453	affix sub armor penetration 3	0	Jackhammer's [item]	English			
14849	124	affix sub armor penetration 3 desc	0	Jackhammer's	English			
14850	922	affix sub armor overload 1	0	Engulfing [item]	English			
14851	2229	affix sub armor overload 1 desc	0	Engulfing	English			
14852	923	affix sub armor overload 2	0	Teeming [item]	English			
14853	906	affix sub armor overload 2 desc	0	Teeming	English			
14854	924	affix sub armor overload 3	0	Inundating [item]	English			
14855	3679	affix sub armor overload 3 desc	0	Inundating	English			
14856	1138	affix sub lifetap 1	0	Leeching [item]	English			
14857	3181	affix sub lifetap 1 desc	0	Leeching	English			
14858	1139	affix sub lifetap 2	0	Parasitic [item]	English			
14859	1858	affix sub lifetap 2 desc	0	Parasitic	English			
14860	1140	affix sub lifetap 3	0	Vampiric [item]	English			
14861	535	affix sub lifetap 3 desc	0	Vampiric	English			
14862	899	affix sub powertap 1	0	Draining [item]	English			
14863	3986	affix sub powertap 1 desc	0	Draining	English			
14864	900	affix sub powertap 2	0	Channeling [item]	English			
14865	2663	affix sub powertap 2 desc	0	Channeling	English			
14866	901	affix sub powertap 3	0	Desiccating [item]	English			
14867	1340	affix sub powertap 3 desc	0	Desiccating	English			
14868	606	affix sub restore power 1	0	Accruing [item]	English			
14869	2505	affix sub restore power 1 desc	0	Accruing	English			
14870	607	affix sub restore power 2	0	Accumulating [item]	English			
14871	1182	affix sub restore power 2 desc	0	Accumulating	English			
14872	608	affix sub restore power 3	0	Acquiring [item]	English			
14873	3955	affix sub restore power 3 desc	0	Acquiring	English			
14874	1610	affix sub skill powercost redux 1	0	Symbolic [item]	English			
14875	1317	affix sub skill powercost redux 1 desc	0	Symbolic	English			
14876	1611	affix sub skill powercost redux 2	0	Essential [item]	English			
14877	4090	affix sub skill powercost redux 2 desc	0	Essential	English			
14878	1612	affix sub skill powercost redux 3	0	Aspected [item]	English			
14879	2767	affix sub skill powercost redux 3 desc	0	Aspected	English			
14880	1521	affix sub skill cooldown redux 1	0	Rapid [item]	English			
14881	280	affix sub skill cooldown redux 1 desc	0	Rapid	English			
14882	1522	affix sub skill cooldown redux 2	0	Autocharged [item]	English			
14883	3053	affix sub skill cooldown redux 2 desc	0	Autocharged	English			
14884	1523	affix sub skill cooldown redux 3	0	Reloaded [item]	English			
14885	1730	affix sub skill cooldown redux 3 desc	0	Reloaded	English			
14886	2534	affix sub skill damage boost 1	0	Damaging [item]	English			
14887	3569	affix sub skill damage boost 1 desc	0	Damaging	English			
14888	2535	affix sub skill damage boost 2	0	Cataclysmic [item]	English			
14889	2246	affix sub skill damage boost 2 desc	0	Cataclysmic	English			
14890	2536	affix sub skill damage boost 3	0	Catastrophic [item]	English			
14891	923	affix sub skill damage boost 3 desc	0	Catastrophic	English			
14892	1898	affix sub gold bonus 1	0	Compensating [item]	English			
14893	1221	affix sub gold bonus 1 desc	0	Compensating	English			
14894	1899	affix sub gold bonus 2	0	Guerdoning [item]	English			
14895	3994	affix sub gold bonus 2 desc	0	Guerdoning	English			
14896	1900	affix sub gold bonus 3	0	Rewarding [item]	English			
14897	2671	affix sub gold bonus 3 desc	0	Rewarding	English			
14898	1773	affix sub exp bonus 1	0	Competent [item]	English			
14899	2756	affix sub exp bonus 1 desc	0	Competent	English			
14900	1774	affix sub exp bonus 2	0	Accomplished [item]	English			
14901	1433	affix sub exp bonus 2 desc	0	Accomplished	English			
14902	1775	affix sub exp bonus 3	0	Veteran [item]	English			
14903	110	affix sub exp bonus 3 desc	0	Veteran	English			
14904	3756	affix sub MonsterRegeneration1	0	Regenerating [item]	English			
14905	687	affix sub MonsterRegeneration1 desc	0	Regenerating	English			
14906	3757	affix sub MonsterRegeneration2	0	Thriving [item]	English			
14907	3460	affix sub MonsterRegeneration2 desc	0	Thriving	English			
14908	3758	affix sub MonsterRegeneration3	0	Vivacious [item]	English			
14909	2137	affix sub MonsterRegeneration3 desc	0	Vivacious	English			
14910	219	affix sub MonsterExtraHealth1	0	Healthy [item]	English			
14911	2506	affix sub MonsterExtraHealth1 desc	0	Healthy	English			
14912	220	affix sub MonsterExtraHealth2	0	Hardy [item]	English			
14913	1183	affix sub MonsterExtraHealth2 desc	0	Hardy	English			
14914	221	affix sub MonsterExtraHealth3	0	Robust [item]	English			
14915	3956	affix sub MonsterExtraHealth3 desc	0	Robust	English			
14916	1014	affix sub MonsterSpeed1	0	Quick [item]	English			
14917	3393	affix sub MonsterSpeed1 desc	0	Quick	English			
14918	1015	affix sub MonsterSpeed2	0	Fast [item]	English			
14919	2070	affix sub MonsterSpeed2 desc	0	Fast	English			
14920	1016	affix sub MonsterSpeed3	0	Speedy [item]	English			
14921	747	affix sub MonsterSpeed3 desc	0	Speedy	English			
14922	3689	affix sub MonsterIgnite1	0	Scorching [item]	English			
14923	3312	affix sub MonsterIgnite1 desc	0	Scorching	English			
14924	3690	affix sub MonsterIgnite2	0	Burning [item]	English			
14925	1989	affix sub MonsterIgnite2 desc	0	Burning	English			
14926	3691	affix sub MonsterIgnite3	0	Blistering [item]	English			
14927	666	affix sub MonsterIgnite3 desc	0	Blistering	English			
14928	1608	affix sub MonsterSpawning1	0	Spawning [item]	English			
14929	3963	affix sub MonsterSpawning1 desc	0	Spawning	English			
14930	1609	affix sub MonsterSpawning2	0	Prolific [item]	English			
14931	2640	affix sub MonsterSpawning2 desc	0	Prolific	English			
14932	1610	affix sub MonsterSpawning3	0	Replicating [item]	English			
14933	1317	affix sub MonsterSpawning3 desc	0	Replicating	English			
14934	2968	affix sub MonsterTeleport1	0	Blinking [item]	English			
14935	2827	affix sub MonsterTeleport1 desc	0	Blinking	English			
14936	2969	affix sub MonsterTeleport2	0	Phasing [item]	English			
14937	1504	affix sub MonsterTeleport2 desc	0	Phasing	English			
14938	2970	affix sub MonsterTeleport3	0	Warping [item]	English			
14939	181	affix sub MonsterTeleport3 desc	0	Warping	English			
14940	1383	affix sub MonsterShocking1	0	Thunderstruck [item]	English			
14941	2630	affix sub MonsterShocking1 desc	0	Thunderstruck	English			
14942	1384	affix sub MonsterShocking2	0	Zapping [item]	English			
14943	1307	affix sub MonsterShocking2 desc	0	Zapping	English			
14944	1385	affix sub MonsterShocking3	0	Electrifying [item]	English			
14945	4080	affix sub MonsterShocking3 desc	0	Electrifying	English			
14946	1035	affix sub MonsterBugHive1	0	Infested [item]	English			
14947	186	affix sub MonsterBugHive1 desc	0	Infested	English			
14948	1036	affix sub MonsterBugHive2	0	Swarming [item]	English			
14949	2959	affix sub MonsterBugHive2 desc	0	Swarming	English			
14950	1037	affix sub MonsterBugHive3	0	Hivehost [item]	English			
14951	1636	affix sub MonsterBugHive3 desc	0	Hivehost	English			
14952	1441	affix sub MonsterCascade1	0	Regressing [item]	English			
14953	3720	affix sub MonsterCascade1 desc	0	Regressing	English			
14954	1442	affix sub MonsterCascade2	0	Diminishing [item]	English			
14955	2397	affix sub MonsterCascade2 desc	0	Diminishing	English			
14956	1443	affix sub MonsterCascade3	0	Cascading [item]	English			
14957	1074	affix sub MonsterCascade3 desc	0	Cascading	English			
14958	3764	affix sub MonsterThornsPhysical1	0	Barbed [item]	English			
14959	2391	affix sub MonsterThornsPhysical1 desc	0	Barbed	English			
14960	3765	affix sub MonsterThornsPhysical2	0	Asperous [item]	English			
14961	1068	affix sub MonsterThornsPhysical2 desc	0	Asperous	English			
14962	3766	affix sub MonsterThornsPhysical3	0	Thorned [item]	English			
14963	3841	affix sub MonsterThornsPhysical3 desc	0	Thorned 	English			
14964	3053	affix sub MonsterThornsFire1	0	Fevered [item]	English			
14965	964	affix sub MonsterThornsFire1 desc	0	Fevered	English			
14966	3054	affix sub MonsterThornsFire2	0	Febrile [item]	English			
14967	3737	affix sub MonsterThornsFire2 desc	0	Febrile	English			
14968	3055	affix sub MonsterThornsFire3	0	Pyretic [item]	English			
14969	2414	affix sub MonsterThornsFire3 desc	0	Pyretic	English			
14970	1044	affix sub MonsterThornsElectricity1	0	Powered [item]	English			
14971	567	affix sub MonsterThornsElectricity1 desc	0	Powered	English			
14972	1045	affix sub MonsterThornsElectricity2	0	Electrostatic [item]	English			
14973	3340	affix sub MonsterThornsElectricity2 desc	0	Electrostatic	English			
14974	1046	affix sub MonsterThornsElectricity3	0	Energized [item]	English			
14975	2017	affix sub MonsterThornsElectricity3 desc	0	Energized 	English			
14976	3337	affix sub MonsterThornsSpectral1	0	Ethereal [item]	English			
14977	2064	affix sub MonsterThornsSpectral1 desc	0	Ethereal	English			
14978	3338	affix sub MonsterThornsSpectral2	0	Empyrean [item]	English			
14979	741	affix sub MonsterThornsSpectral2 desc	0	Empyrean	English			
14980	3339	affix sub MonsterThornsSpectral3	0	Celestial [item]	English			
14981	3514	affix sub MonsterThornsSpectral3 desc	0	Celestial	English			
14982	1674	affix sub MonsterThornsToxic1	0	Rotted [item]	English			
14983	2661	affix sub MonsterThornsToxic1 desc	0	Rotted	English			
14984	1675	affix sub MonsterThornsToxic2	0	Decomposing [item]	English			
14985	1338	affix sub MonsterThornsToxic2 desc	0	Decomposing	English			
14986	1676	affix sub MonsterThornsToxic3	0	Corroded [item]	English			
14987	15	affix sub MonsterThornsToxic3 desc	0	Corroded	English			
14988	1915	affix sub MonsterFireField1	0	Smoldering [item]	English			
14989	3306	affix sub MonsterFireField1 desc	0	Smoldering	English			
14990	1916	affix sub MonsterFireField2	0	Infernal [item]	English			
14991	1983	affix sub MonsterFireField2 desc	0	Infernal	English			
14992	1917	affix sub MonsterFireField3	0	Incendiary [item]	English			
14993	660	affix sub MonsterFireField3 desc	0	Incendiary	English			
14994	2151	affix sub MonsterSpectralField1	0	Glimmering [item]	English			
14995	2374	affix sub MonsterSpectralField1 desc	0	Glimmering	English			
14996	2152	affix sub MonsterSpectralField2	0	Shimmering [item]	English			
14997	1051	affix sub MonsterSpectralField2 desc	0	Shimmering	English			
14998	2153	affix sub MonsterSpectralField3	0	Dazzling [item]	English			
14999	3824	affix sub MonsterSpectralField3 desc	0	Dazzling	English			
15000	3476	affix sub MonsterElectricField1	0	Sparking [item]	English			
15001	2487	affix sub MonsterElectricField1 desc	0	Sparking	English			
15002	3477	affix sub MonsterElectricField2	0	Voltaic [item]	English			
15003	1164	affix sub MonsterElectricField2 desc	0	Voltaic	English			
15004	3478	affix sub MonsterElectricField3	0	Charged [item]	English			
15005	3937	affix sub MonsterElectricField3 desc	0	Charged	English			
15006	2868	affix sub MonsterToxicField1	0	Plagued [item]	English			
15007	4055	affix sub MonsterToxicField1 desc	0	Plagued	English			
15008	2869	affix sub MonsterToxicField2	0	Pestilent [item]	English			
15009	2732	affix sub MonsterToxicField2 desc	0	Pestilent	English			
15010	2870	affix sub MonsterToxicField3	0	Septic [item]	English			
15011	1409	affix sub MonsterToxicField3 desc	0	Septic	English			
15012	2478	affix sub MonsterPhysicalField1	0	Bursting [item]	English			
15013	3929	affix sub MonsterPhysicalField1 desc	0	Bursting	English			
15014	2479	affix sub MonsterPhysicalField2	0	Spiked [item]	English			
15015	2606	affix sub MonsterPhysicalField2 desc	0	Spiked	English			
15016	2480	affix sub MonsterPhysicalField3	0	Razor [item]	English			
15017	1283	affix sub MonsterPhysicalField3 desc	0	Razor	English			
15018	447	affix sub MonsterBoomerang1	0	Boomerang [item]	English			
15019	3966	affix sub MonsterBoomerang1 desc	0	Boomerang	English			
15020	448	affix sub MonsterBoomerang2	0	Backlash [item]	English			
15021	2643	affix sub MonsterBoomerang2 desc	0	Backlash	English			
15022	449	affix sub MonsterBoomerang3	0	Rebounding [item]	English			
15023	1320	affix sub MonsterBoomerang3 desc	0	Rebounding	English			
15024	3966	affix sub MonsterPhase1	0	Phased [item]	English			
15025	1385	affix sub MonsterPhase1 desc	0	Phased	English			
15026	3967	affix sub MonsterPhase2	0	Planeshifter [item]	English			
15027	62	affix sub MonsterPhase2 desc	0	Planeshifter	English			
15028	3968	affix sub MonsterPhase3	0	Planewalker [item]	English			
15029	2835	affix sub MonsterPhase3 desc	0	Planewalker	English			
15030	2594	affix sub MonsterShieldOverload1	0	Overloaded [item]	English			
15031	2013	affix sub MonsterShieldOverload1 desc	0	Overloaded	English			
15032	2595	affix sub MonsterShieldOverload2	0	Overwhelming [item]	English			
15033	690	affix sub MonsterShieldOverload2 desc	0	Overwhelming	English			
15034	2596	affix sub MonsterShieldOverload3	0	Hyperfluxive [item]	English			
15035	3463	affix sub MonsterShieldOverload3 desc	0	Hyperfluxive	English			
15036	363	affix sub MonsterShielded1	0	Shielded [item]	English			
15037	410	affix sub MonsterShielded1 desc	0	Shielded	English			
15038	364	affix sub MonsterShielded2	0	Grounded [item]	English			
15039	3183	affix sub MonsterShielded2 desc	0	Grounded	English			
15040	365	affix sub MonsterShielded3	0	Dampened [item]	English			
15041	1860	affix sub MonsterShielded3 desc	0	Dampened	English			
15042	3087	affix sub MonsterArmored1	0	Toughened [item]	English			
15043	1038	affix sub MonsterArmored1 desc	0	Toughened	English			
15044	3088	affix sub MonsterArmored2	0	Armored [item]	English			
15045	3811	affix sub MonsterArmored2 desc	0	Armored	English			
15046	3089	affix sub MonsterArmored3	0	Unyielding [item]	English			
15047	2488	affix sub MonsterArmored3 desc	0	Unyielding	English			
15048	2316	affix sub c_Starter1	0	Initiate [item]	English			
15049	2317	affix sub c_Starter2	0	Apprentice [item]	English			
15050	2318	affix sub c_Starter3	0	Neophyte [item]	English			
15051	2319	affix sub c_Starter4	0	Tyro [item]	English			
15052	3493	affix sub h_Starter1	0	Recruit [item]	English			
15053	3494	affix sub h_Starter2	0	Greenhorn [item]	English			
15054	3495	affix sub h_Starter3	0	Cadet [item]	English			
15055	3496	affix sub h_Starter4	0	Trooper [item]	English			
15056	3041	affix sub t_Starter1	0	Novice [item]	English			
15057	3042	affix sub t_Starter2	0	Aspirant [item]	English			
15058	3043	affix sub t_Starter3	0	Squire [item]	English			
15059	3044	affix sub t_Starter4	0	Prentice [item]	English			
15060	286	affix sub Starter1	0	Novice [item]	English			
15061	287	affix sub Starter2	0	Adept [item]	English			
15062	288	affix sub Starter3	0	Expert [item]	English			
15063	289	affix sub Starter4	0	Master [item]	English			
15064	490	affix sub Mystic1	0	Charmed [item]	English			
15065	491	affix sub Mystic2	0	Conjured [item]	English			
15066	492	affix sub Mystic3	0	Invoked [item]	English			
15067	493	affix sub Mystic4	0	Haunted [item]	English			
15068	494	affix sub Mystic5	0	Sadist [item]	English			
15069	495	affix sub Mystic6	0	Symbol [item]	English			
15070	496	affix sub Mystic7	0	Augured [item]	English			
15071	497	affix sub Mystic8	0	Magus [item]	English			
15072	498	affix sub Mystic9	0	Sorcerous [item]	English			
15073	1794	affix sub Mystic10	0	Runed [item]	English			
15074	1795	affix sub Mystic11	0	Entrancing [item]	English			
15075	1796	affix sub Mystic12	0	Ensorcelled [item]	English			
15076	1797	affix sub Mystic13	0	Marvelous [item]	English			
15077	1798	affix sub Mystic14	0	Extraordinary [item]	English			
15078	3356	affix sub MysticCrit1	0	Imbued [item]	English			
15079	3357	affix sub MysticCrit2	0	Wicked [item]	English			
15080	3358	affix sub MysticCrit3	0	Infused [item]	English			
15081	3359	affix sub MysticCrit4	0	Despoiled [item]	English			
15082	3360	affix sub MysticCrit5	0	Forsaken [item]	English			
15083	1817	affix sub MysticBoost1	0	Adorned [item]	English			
15084	1818	affix sub MysticBoost2	0	Glyph [item]	English			
15085	1819	affix sub MysticBoost3	0	Hierophant [item]	English			
15086	1843	affix sub MysticUber	0	Mystic [item]	English			
15087	2705	affix sub MysticUber2	0	Profound [item]	English			
15088	2363	affix sub Arcane1	0	Destrider [item]	English			
15089	2364	affix sub Arcane2	0	Occultist [item]	English			
15090	2365	affix sub Arcane3	0	Darkwalker [item]	English			
15091	2366	affix sub Arcane4	0	Hidden [item]	English			
15092	2367	affix sub Arcane5	0	Sibylline [item]	English			
15093	2368	affix sub Arcane6	0	Oracle [item]	English			
15094	2369	affix sub Arcane7	0	Tenebrous [item]	English			
15095	2370	affix sub Arcane8	0	Crypt Keeper [item]	English			
15096	2371	affix sub Arcane9	0	Stargazer [item]	English			
15097	1463	affix sub Arcane10	0	Sunfire [item]	English			
15098	1464	affix sub Arcane11	0	Galactic [item]	English			
15099	1465	affix sub Arcane12	0	Continuum [item]	English			
15100	1466	affix sub Arcane13	0	Extraplanar [item]	English			
15101	1467	affix sub Arcane14	0	Hubris [item]	English			
15102	540	affix sub ArcaneEvade1	0	Shadowdancer [item]	English			
15103	541	affix sub ArcaneEvade2	0	Mistwalker [item]	English			
15104	542	affix sub ArcaneEvade3	0	Slighthand [item]	English			
15105	543	affix sub ArcaneEvade4	0	Trickster [item]	English			
15106	544	affix sub ArcaneEvade5	0	Chaos [item]	English			
15107	3370	affix sub ArcaneEfxD1	0	Dreamweaver [item]	English			
15108	3371	affix sub ArcaneEfxD2	0	Thetan [item]	English			
15109	3372	affix sub ArcaneEfxD3	0	Lucid [item]	English			
15110	3360	affix sub ArcaneUber	0	Spellbinder [item]	English			
15111	1490	affix sub ArcaneUber2	0	Omnipotent [item]	English			
15112	329	affix sub Tech1	0	Defender [item]	English			
15113	330	affix sub Tech2	0	Farrier [item]	English			
15114	331	affix sub Tech3	0	Beefeater [item]	English			
15115	332	affix sub Tech4	0	Brigadier [item]	English			
15116	333	affix sub Tech5	0	Bulwark [item]	English			
15117	334	affix sub Tech6	0	Homeguard [item]	English			
15118	335	affix sub Tech7	0	Warden [item]	English			
15119	336	affix sub Tech8	0	Crafted [item]	English			
15120	337	affix sub Tech9	0	Artisan [item]	English			
15121	4029	affix sub Tech10	0	Masterwork [item]	English			
15122	4030	affix sub Tech11	0	Immaculate [item]	English			
15123	4031	affix sub Tech12	0	Iconic [item]	English			
15124	4032	affix sub Tech13	0	Flawless [item]	English			
15125	4033	affix sub Tech14	0	Absolute [item]	English			
15126	1578	affix sub TechEfxsub1	0	Rad [item]	English			
15127	1579	affix sub TechEfxsub2	0	Pyric [item]	English			
15128	1580	affix sub TechEfxsub3	0	Voltaic [item]	English			
15129	1581	affix sub TechEfxsub4	0	Prismatic [item]	English			
15130	1582	affix sub TechEfxsub5	0	Phantasmic [item]	English			
15131	2902	affix sub TechInterrupt1	0	Guardian [item]	English			
15132	2903	affix sub TechInterrupt2	0	Preserver [item]	English			
15133	2904	affix sub TechInterrupt3	0	Vault [item]	English			
15134	1846	affix sub TechUber	0	Sentinel [item]	English			
15135	2816	affix sub TechUber2	0	Angelic [item]	English			
15136	3186	affix sub Power1	0	Blitz [item]	English			
15137	3187	affix sub Power2	0	Raider [item]	English			
15138	3188	affix sub Power3	0	Assault [item]	English			
15139	3189	affix sub Power4	0	Quantum [item]	English			
15140	3190	affix sub Power5	0	Palladium [item]	English			
15141	3191	affix sub Power6	0	Hydrino [item]	English			
15142	3192	affix sub Power7	0	Luminiferous [item]	English			
15143	3193	affix sub Power8	0	Mercurial [item]	English			
15144	3194	affix sub Power9	0	Synchronous [item]	English			
15145	3242	affix sub Power10	0	Nanodyne [item]	English			
15146	3243	affix sub Power11	0	Temporal [item]	English			
15147	3244	affix sub Power12	0	Evanescent [item]	English			
15148	3245	affix sub Power13	0	Perpetual [item]	English			
15149	3246	affix sub Power14	0	Carnal [item]	English			
15150	899	affix sub PowerRegen1	0	Powered [item]	English			
15151	900	affix sub PowerRegen2	0	Restorative [item]	English			
15152	901	affix sub PowerRegen3	0	Harmonic [item]	English			
15153	902	affix sub PowerRegen4	0	Reanimator [item]	English			
15154	903	affix sub PowerRegen5	0	Havoc [item]	English			
15155	3113	affix sub PowerDeflect1	0	Adamantine [item]	English			
15156	3114	affix sub PowerDeflect2	0	Carbonite [item]	English			
15157	3115	affix sub PowerDeflect3	0	Zirconium [item]	English			
15158	1691	affix sub PowerUber	0	Onslaught [item]	English			
15159	1177	affix sub PowerUber2	0	Overlord [item]	English			
15160	574	affix sub street_brown	0	Brown [item]	English			
15161	632	affix sub street_brown_desc	0	Brown	English			
15162	1511	affix sub street_charcoal	0	Charcoal [item]	English			
15163	2069	affix sub street_charcoal_desc	0	Charcoal	English			
15164	1016	affix sub street_darkblue	0	Dark Blue [item]	English			
15165	1594	affix sub street_darkblue_desc	0	Dark Blue	English			
15166	522	affix sub street_lightblue	0	Light Blue [item]	English			
15167	3892	affix sub street_lightblue_desc	0	Light Blue	English			
15168	2114	affix sub street_burgandy	0	Burgundy [item]	English			
15169	3020	affix sub street_burgandy_desc	0	Burgundy	English			
15170	1713	affix sub street_tan	0	Tan [item]	English			
15171	1063	affix sub street_tan_desc	0	Tan	English			
15172	3229	affix sub street_desert	0	Beige [item]	English			
15173	2435	affix sub street_desert_desc	0	Beige	English			
15174	262	affix sub street_seafoam	0	Seafoam [item]	English			
15175	3808	affix sub street_seafoam_desc	0	Seafoam	English			
15176	3565	affix sub FawkesDayAffix	0	Fawkes' [item]	English			
15177	3524	affix sub FawkesDayAffix desc	0	Fawkes'	English			
15178	6666	respec unique	0	Unique Skill Retrainer	Singular	Default		
15178	6666	respec unique	0	Unique Skill Retrainers	Plural			
15179	6667	respec perks	0	Expertise Retrainer	Singular	Default		
15179	6667	respec perks	0	Expertise Retrainers	Plural			
15180	6668	respec perks unique	0	Unique Expertise Retrainer	Singular	Default		
15180	6668	respec perks unique	0	Unique Expertise Retrainers	Plural			
15181	6669	Skill Token Shock Buildup	0	Shock Buildup Skill Token	Singular	Default		
15181	6669	Skill Token Shock Buildup	0	Shock Buildup Skill Tokens	Plural			
15182	6670	Skill Token Surge Heal	0	Icon of the Archangel	Singular	Default		
15182	6670	Skill Token Surge Heal	0	Icons of the Archangel	Plural			
15183	6671	Skill Token Surge Blast	0	Surge Blast Skill Token	Singular	Default		
15183	6671	Skill Token Surge Blast	0	Surge Blast Skill Tokens	Plural			
15184	6672	Skill Token Surge Crusader	0	Bane of St. George	Singular	Default		
15184	6672	Skill Token Surge Crusader	0	Bane of St. George	Plural			
15185	6673	Skill Token Surge Berserker	0	Surge Berserker Skill Token	Singular	Default		
15185	6673	Skill Token Surge Berserker	0	Surge Berserker Skill Tokens	Plural			
15186	6674	Skill Token Power Steal	0	Seal of the Bishop	Singular	Default		
15186	6674	Skill Token Power Steal	0	Seals of the Bishop	Plural			
15187	6675	Skill Token Electrical Prayer	0	Seal of Sumerisle	Singular	Default		
15187	6675	Skill Token Electrical Prayer	0	Seals of Sumerisle	Plural			
15188	6676	Skill Token Shield Toss	0	Orbital Stabilizer	Singular	Default		
15188	6676	Skill Token Shield Toss	0	Orbital Stabilizers	Plural			
15189	6677	Skill Token Aura Stability	0	Cross of St. Patrick	Singular	Default		
15189	6677	Skill Token Aura Stability	0	Crosses of St. Patrick	Plural			
15190	6678	Skill Token Grenade Mastery	0	Grenade Mastery Skill Token	Singular	Default		
15190	6678	Skill Token Grenade Mastery	0	Grenade Mastery Skill Tokens	Plural			
15191	6679	Skill Token EMP Blast	0	ElectroMag	Singular	Default		
15191	6679	Skill Token EMP Blast	0	ElectroMags	Plural			
15192	6680	Skill Token Flash Bang	0	Nesmith's Blast Cell	Singular	Default		
15192	6680	Skill Token Flash Bang	0	Nesmith's Blast Cells	Plural			
15193	6681	Skill Token Decoy	0	Decoy Skill Token	Singular	Default		
15193	6681	Skill Token Decoy	0	Decoy Skill Tokens	Plural			
15194	6682	Skill Token Sniper Stealth	0	Ghillie Suit	Singular	Default		
15194	6682	Skill Token Sniper Stealth	0	Ghillie Suits	Plural			
15195	6683	Skill Token Sacrifice Device Bomber	0	Sacrifice Device Bomber Skill Token	Singular	Default		
15195	6683	Skill Token Sacrifice Device Bomber	0	Sacrifice Device Bomber Skill Tokens	Plural			
15196	6684	Skill Token Spider Mines	0	Spider Mine Schematic	Singular	Default		
15196	6684	Skill Token Spider Mines	0	Spider Mine Schematics	Plural			
15197	6685	Skill Token Buff Turret	0	Buff Turret Skill Token	Singular	Default		
15197	6685	Skill Token Buff Turret	0	Buff Turret Skill Tokens	Plural			
15198	6686	Skill Token Turret Attack Mode	0	Scorpion Targeting System	Singular	Default		
15198	6686	Skill Token Turret Attack Mode	0	Scorpion Targeting Systems	Plural			
15199	6687	Skill Token Transform Zombie	0	Heart of Talox	Singular	Default		
15199	6687	Skill Token Transform Zombie	0	Hearts of Talox	Plural			
15200	6688	Skill Token Zombie Lord	0	Skull of Dessicator	Singular	Default		
15200	6688	Skill Token Zombie Lord	0	Skulls of Dessicator	Plural			
15201	6689	Skill Token Command Laser	0	Command Laser Skill Token	Singular	Default		
15201	6689	Skill Token Command Laser	0	Command Laser Skill Tokens	Plural			
15202	6690	Skill Token Reaper Laser	0	Reaper Laser Skill Token	Singular	Default		
15202	6690	Skill Token Reaper Laser	0	Reaper Laser Skill Tokens	Plural			
15203	6691	Skill Token Zombie Lunch	0	Zombie Lunch Skill Token	Singular	Default		
15203	6691	Skill Token Zombie Lunch	0	Zombie Lunch Skill Tokens	Plural			
15204	6692	Skill Token Zombie Sacrifice	0	Claw of Errgoth	Singular	Default		
15204	6692	Skill Token Zombie Sacrifice	0	Claws of Errgoth	Plural			
15205	6693	Skill Token Transform Wraith	0	Transform Wraith Skill Token	Singular	Default		
15205	6693	Skill Token Transform Wraith	0	Transform Wraith Skill Tokens	Plural			
15206	6694	Skill Token Summon Bonewall	0	Gravedust	Singular	Default		
15206	6694	Skill Token Summon Bonewall	0	Gravedust	Plural			
15207	6695	Skill Token Summon Hydra	0	Pendant of Talox	Singular	Default		
15207	6695	Skill Token Summon Hydra	0	Pendants of Talox	Plural			
15208	6696	Skill Token Shield Hardening	0	Shield Hardening Skill Token	Singular	Default		
15208	6696	Skill Token Shield Hardening	0	Shield Hardening Skill Tokens	Plural			
15209	6697	Cabalist_Focus27_teeth_basic	0	Coreslicer	Singular	Default		
15209	6697	Cabalist_Focus27_teeth_basic	0	Coreslicers	Plural			
15210	6698	Cabalist_Focus27_teethMk2_basic	0	Coreslasher	Singular	Default		
15210	6698	Cabalist_Focus27_teethMk2_basic	0	Coreslashers	Plural			
15211	6699	Cabalist_Focus27_teethMk3_basic	0	Coreshredder	Singular	Default		
15211	6699	Cabalist_Focus27_teethMk3_basic	0	Coreshredders	Plural			
15212	6700	Cabalist_Focus28_tusks_basic	0	Ripping Radiant	Singular	Default		
15212	6700	Cabalist_Focus28_tusks_basic	0	Ripping Radiants	Plural			
15213	6701	Cabalist_Focus28_tusksMk2_basic	0	Riving Radiant	Singular	Default		
15213	6701	Cabalist_Focus28_tusksMk2_basic	0	Riving Radiants	Plural			
15214	6702	Cabalist_Focus28_tusksMk3_basic	0	Rending Radiant	Singular	Default		
15214	6702	Cabalist_Focus28_tusksMk3_basic	0	Rending Radiants	Plural			
15215	6703	Cabalist_Focus27_teeth	0	Ripshard	Singular	Default		
15215	6703	Cabalist_Focus27_teeth	0	Ripshards	Plural			
15216	6704	Cabalist_Focus27_teeth Unique 01	0	Megalodon	Singular	Default		
15216	6704	Cabalist_Focus27_teeth Unique 01	0	Megalodons	Plural			
15217	6705	fla Cabalist_Focus27_teeth	0	"When I fight someone, I want to break his will. I want to take his manhood. I want to rip out his heart and show it to him.\n- Mike Tyson"	Singular	Default		
15217	6705	fla Cabalist_Focus27_teeth	0	"When I fight someone, I want to break his will. I want to take his manhood. I want to rip out his heart and show it to him.\n- Mike Tyson"	Plural			
15218	6706	Cabalist_Focus27_teethMk2	0	Predator Ripshard	Singular	Default		
15218	6706	Cabalist_Focus27_teethMk2	0	Predator Ripshards	Plural			
15219	6707	Cabalist_Focus27_teethMk2 Unique 01	0	Remnants of Grregas	Singular	Default		
15219	6707	Cabalist_Focus27_teethMk2 Unique 01	0	Remnants of Grregas	Plural			
15220	6708	fla Cabalist_Focus27_teethMk2	0	"Life itself is held in the grinning fangs of Death, Yet men delay to obtain release from the world. Alas, the conduct of mankind is surprising.\n- Titus Maccius Plautus"	Singular	Default		
15220	6708	fla Cabalist_Focus27_teethMk2	0	"Life itself is held in the grinning fangs of Death, Yet men delay to obtain release from the world. Alas, the conduct of mankind is surprising.\n- Titus Maccius Plautus"	Plural			
15221	6709	Cabalist_Focus27_teethMk3	0	Slayer Ripshard	Singular	Default		
15221	6709	Cabalist_Focus27_teethMk3	0	Slayer Ripshards	Plural			
15222	6710	Cabalist_Focus27_teethMk3 Unique 01	0	Black Angel	Singular	Default		
15222	6710	Cabalist_Focus27_teethMk3 Unique 01	0	Black Angels	Plural			
15223	6711	fla Cabalist_Focus27_teethMk3	0	On a starred night the dark angel uprose.\nTired of his dark dominion swung the fiend.\n- Cabalist Text	Singular	Default		
15223	6711	fla Cabalist_Focus27_teethMk3	0	On a starred night the dark angel uprose.\nTired of his dark dominion swung the fiend.\n- Cabalist Text	Plural			
15224	6712	Cabalist_Focus28_tusks	0	Bloodshard	Singular	Default		
15224	6712	Cabalist_Focus28_tusks	0	Bloodshards	Plural			
15225	6713	Cabalist_Focus28_tusks Unique 01	0	Mordify	Singular	Default		
15225	6713	Cabalist_Focus28_tusks Unique 01	0	Tuskulls	Plural			
15226	6714	fla Cabalist_Focus28_tusks	0	My bones are pierced in me in the night season: and my sinews take no rest.\n- Job 30:17	Singular	Default		
15226	6714	fla Cabalist_Focus28_tusks	0	My bones are pierced in me in the night season: and my sinews take no rest.\n- Job 30:17	Plural			
15227	6715	Cabalist_Focus28_tusksMk2	0	Grim Bloodshard	Singular	Default		
15227	6715	Cabalist_Focus28_tusksMk2	0	Grim Bloodshards	Plural			
15228	6716	Cabalist_Focus28_tusksMk2 Unique 01	0	Tuskull	Singular	Default		
15228	6716	Cabalist_Focus28_tusksMk2 Unique 01	0	The Abandoned Fists	Plural			
15229	6717	fla Cabalist_Focus28_tusksMk2	0	"Counting its dead by thousands, the hostile army, pierced and shattered in the clash of arms, shall lie!\n- Atharva Veda"	Singular	Default		
15229	6717	fla Cabalist_Focus28_tusksMk2	0	"Counting its dead by thousands, the hostile army, pierced and shattered in the clash of arms, shall lie!\n- Atharva Veda"	Plural			
15230	6718	Cabalist_Focus28_tusksMk3	0	Eviceration Bloodshard	Singular	Default		
15230	6718	Cabalist_Focus28_tusksMk3	0	Eviceration Bloodshards	Plural			
15231	6719	Cabalist_Focus28_tusksMk3 Unique 01	0	The Abandoned Fist	Singular	Default		
15231	6719	Cabalist_Focus28_tusksMk3 Unique 01	0	Mordify	Plural			
15232	6720	fla Cabalist_Focus28_tusksMk3	0	"When you are an anvil be patient; when a hammer, strike.\n- Arabian Proverb"	Singular	Default		
15232	6720	fla Cabalist_Focus28_tusksMk3	0	"When you are an anvil be patient; when a hammer, strike.\n- Arabian Proverb"	Plural			
15233	6721	Cabalist_Focus29_glyph	0	Glyphshard	Singular	Default		
15233	6721	Cabalist_Focus29_glyph	0	Glyphshards	Plural			
15234	6722	Cabalist_Focus29_glyph Unique 01	0	Ceremonial Shard	Singular	Default		
15234	6722	Cabalist_Focus29_glyph Unique 01	0	Keel Brands	Plural			
15235	6723	fla Cabalist_Focus29_glyph	0	I would rather live in a world where my life is surrounded by mystery than live in a world so small that my mind could comprehend it.\n- Harry Emerson Fosdick	Singular	Default		
15235	6723	fla Cabalist_Focus29_glyph	0	I would rather live in a world where my life is surrounded by mystery than live in a world so small that my mind could comprehend it.\n- Harry Emerson Fosdick	Plural			
15236	6724	Cabalist_Focus29_glyphMk2	0	Grand Glyphshard	Singular	Default		
15236	6724	Cabalist_Focus29_glyphMk2	0	Glyph Glyphshard	Plural			
15237	6725	Cabalist_Focus29_glyphMk2 Unique 01	0	The Keel Brand	Singular	Default		
15237	6725	Cabalist_Focus29_glyphMk2 Unique 01	0	Ceremonial Shards	Plural			
15238	6726	fla Cabalist_Focus29_glyphMk2	0	Now comes the mystery.\n- Last words of Ambrose Delphian	Singular	Default		
15238	6726	fla Cabalist_Focus29_glyphMk2	0	Now comes the mystery.\n- Last words of Ambrose Delphian	Plural			
15239	6727	Cabalist_Focus29_glyphMk3	0	Obliteration Glyphshard	Singular	Default		
15239	6727	Cabalist_Focus29_glyphMk3	0	Glyph Glyphshard	Plural			
15240	6728	Cabalist_Focus29_glyphMk3 Unique 01	0	Galactic Conquest	Singular	Default		
15240	6728	Cabalist_Focus29_glyphMk3 Unique 01	0	Galactic Conquests	Plural			
15241	6729	fla Cabalist_Focus29_glyphMk3	0	The final mystery is oneself.\n- Oscar Wilde	Singular	Default		
15241	6729	fla Cabalist_Focus29_glyphMk3	0	The final mystery is oneself.\n- Oscar Wilde	Plural			
15242	6730	Gleamcarver	0	Gleamcarver	Singular	Default		
15242	6730	Gleamcarver	0	Gleamcarver	Plural			
15243	6731	Gleamcarver Unique 01	0	Grimace	Singular	Default		
15243	6731	Gleamcarver Unique 01	0	Grimaces	Plural			
15244	6732	fla gleamcarver	0	"There has been opposition to every innovation in the history of man, with the possible exception of the sword.\n- Benjamin Dana"	Singular	Default		
15244	6732	fla gleamcarver	0	"There has been opposition to every innovation in the history of man, with the possible exception of the sword.\n- Benjamin Dana"	Plural			
15245	6733	Dissector	0	Dissector	Singular	Default		
15245	6733	Dissector	0	Dissector	Plural			
15246	6734	Dissector Unique 01	0	Moorgoth's Hand	Singular	Default		
15246	6734	Dissector Unique 01	0	Moorgoth's Hands	Plural			
15247	6735	fla dissector	0	The failure to dissect the cause of war leaves us open for the next installment.\n- Chris Hedges	Singular	Default		
15247	6735	fla dissector	0	The failure to dissect the cause of war leaves us open for the next installment.\n- Chris Hedges	Plural			
15248	6736	Dissector Shield	0	Dissector Shield	Singular	Default		
15248	6736	Dissector Shield	0	Dissector Shield	Plural			
15249	6737	Dissector Shield Unique 01	0	Moorgoth's Hold	Singular	Default		
15249	6737	Dissector Shield Unique 01	0	Moorgoth's Holds	Plural			
15250	6738	fla dissector_shield	0	"Let those who boast their courage in the field, find little safety from my shield.\n- Guardian Chant"	Singular	Default		
15250	6738	fla dissector_shield	0	"Let those who boast their courage in the field, find little safety from my shield.\n- Guardian Chant"	Plural			
15251	6739	Core Magnum	0	F-S Force Magnum	Singular	Default		
15251	6739	Core Magnum	0	F-S Force Magnums	Plural			
15252	6740	Core Magnum Unique 01	0	Mastodon	Singular	Default		
15252	6740	Core Magnum Unique 01	0	Mastodons	Plural			
15253	6741	fla core_magnum	0	"Don't force it, get a bigger hammer.\n- Arthur Bloch"	Singular	Default		
15253	6741	fla core_magnum	0	"Don't force it, get a bigger hammer.\n- Arthur Bloch"	Plural			
15254	6742	Thunderclash	0	XM909 Thunderclash	Singular	Default		
15254	6742	Thunderclash	0	XM909 Thunderclashs	Plural			
15255	6743	Thunderclash Unique 01	0	XM9x Thundergod	Singular	Default		
15255	6743	Thunderclash Unique 01	0	XM9x Thundergods	Plural			
15256	6744	fla thunderclash	0	"Thunder is good, thunder is impressive; but it is lightning that does all the work.\n- Mark Twain"	Singular	Default		
15256	6744	fla thunderclash	0	"Thunder is good, thunder is impressive; but it is lightning that does all the work.\n- Mark Twain"	Plural			
15257	6745	Thumper	0	Thumper	Singular	Default		
15257	6745	Thumper	0	Thumpers	Plural			
15258	6746	Thumper Unique 01	0	Doompulse	Singular	Default		
15258	6746	Thumper Unique 01	0	Doompulses	Plural			
15259	6747	fla Thumper	0	Three. . . Two. . . One. . .!\n- Gunny	Singular	Default		
15259	6747	fla Thumper	0	Three. . . Two. . . One. . .!\n- Gunny	Plural			
15260	6748	c_power5_normal_belt	0	Feral Belt	Singular	Default		
15260	6748	c_power5_normal_belt	0	Feral Belts	Plural			
15261	6749	c_power5_normal_belt Unique 01	0	Hellion Hasp	Singular	Default		
15261	6749	c_power5_normal_belt Unique 01	0	Hellion Hasps	Plural			
15262	6750	fla c_power5_normal_belt	0	I don't need a belt to make me. I make the belt.\n- James Toney	Singular	Default		
15262	6750	fla c_power5_normal_belt	0	I don't need a belt to make me. I make the belt.\n- James Toney	Plural			
15263	6751	c_power5_normal_gloves	0	Feral Gloves	Singular	Default		
15263	6751	c_power5_normal_gloves	0	Feral Gloves	Plural			
15264	6752	c_power5_normal_gloves Unique 01	0	Gehenna Grasps	Singular	Default		
15264	6752	c_power5_normal_gloves Unique 01	0	Gehenna Grasps	Plural			
15265	6753	fla c_power5_normal_gloves	0	Beware that you do not lose the substance by grasping at the shadow.\n- Aesop	Singular	Default		
15265	6753	fla c_power5_normal_gloves	0	Beware that you do not lose the substance by grasping at the shadow.\n- Aesop	Plural			
15266	6754	c_power5_normal_head	0	Feral Mask	Singular	Default		
15266	6754	c_power5_normal_head	0	Feral Masks	Plural			
15267	6755	c_power5_normal_head Unique 01	0	Dark Visage	Singular	Default		
15267	6755	c_power5_normal_head Unique 01	0	Dark Visages	Plural			
15268	6756	fla c_power5_normal_head	0	"We are each our own devil, and we make this world our hell.\n- Oscar Wilde"	Singular	Default		
15268	6756	fla c_power5_normal_head	0	"We are each our own devil, and we make this world our hell.\n- Oscar Wilde"	Plural			
15269	6757	c_power5_normal_pants	0	Feral Guards	Singular	Default		
15269	6757	c_power5_normal_pants	0	Feral Guards	Plural			
15270	6758	c_power5_normal_pants Unique 01	0	Legion Guards	Singular	Default		
15270	6758	c_power5_normal_pants Unique 01	0	Legion Guards	Plural			
15271	6759	fla c_power5_normal_pants	0	My name is Legion: for we are many.\n-Mark 5:9	Singular	Default		
15271	6759	fla c_power5_normal_pants	0	My name is Legion: for we are many.\n-Mark 5:9	Plural			
15272	6760	c_power5_normal_shoulders	0	Feral Shoulders	Singular	Default		
15272	6760	c_power5_normal_shoulders	0	Feral Shoulders	Plural			
15273	6761	c_power5_normal_shoulders Unique 01	0	Pit Pauldrons	Singular	Default		
15273	6761	c_power5_normal_shoulders Unique 01	0	Pit Pauldrons	Plural			
15274	6762	fla c_power5_normal_shoulders	0	Hell is empty and all the devils are here.\n- William Shakespeare	Singular	Default		
15274	6762	fla c_power5_normal_shoulders	0	Hell is empty and all the devils are here.\n- William Shakespeare	Plural			
15275	6763	c_power5_normal_torso	0	Feral Plate	Singular	Default		
15275	6763	c_power5_normal_torso	0	Feral Plates	Plural			
15276	6764	c_power5_normal_torso Unique 01	0	Heart of Darkness	Singular	Default		
15276	6764	c_power5_normal_torso Unique 01	0	Hearts of Darkness	Plural			
15277	6765	fla c_power5_normal_torso	0	For this world which thou dost inhabit is itself the realm of darkness and this very flesh is thy perdition.\n-Ecclesiastes	Singular	Default		
15277	6765	fla c_power5_normal_torso	0	For this world which thou dost inhabit is itself the realm of darkness and this very flesh is thy perdition.\n-Ecclesiastes	Plural			
15278	6766	c_power5_normal_boots	0	Feral Boots	Singular	Default		
15278	6766	c_power5_normal_boots	0	Feral Boots	Plural			
15279	6767	c_power5_normal_boots Unique 01	0	Night Striders	Singular	Default		
15279	6767	c_power5_normal_boots Unique 01	0	Night Striders	Plural			
15280	6768	fla c_power5_normal_boots	0	"When you reach the end of all light, it is time to step into the darkness.\n- Seeker Crowe"	Singular	Default		
15280	6768	fla c_power5_normal_boots	0	"When you reach the end of all light, it is time to step into the darkness.\n- Seeker Crowe"	Plural			
15281	6769	h_tech5_normal_belt	0	Cybernet Belt	Singular	Default		
15281	6769	h_tech5_normal_belt	0	Cybernet Belts	Plural			
15282	6770	h_tech5_normal_belt Unique 01	0	Techa Band	Singular	Default		
15282	6770	h_tech5_normal_belt Unique 01	0	Techa Bands	Plural			
15283	6771	fla h_tech5_normal_belt	0	"I just invent, then wait until man comes around to needing what I've invented.\n- R. Buckminster Fuller"	Singular	Default		
15283	6771	fla h_tech5_normal_belt	0	"I just invent, then wait until man comes around to needing what I've invented.\n- R. Buckminster Fuller"	Plural			
15284	6772	h_tech5_normal_gloves	0	Cybernet Gloves	Singular	Default		
15284	6772	h_tech5_normal_gloves	0	Cybernet Gloves	Plural			
15285	6773	h_tech5_normal_gloves Unique 01	0	Techa Gauntlet	Singular	Default		
15285	6773	h_tech5_normal_gloves Unique 01	0	Techa Gauntlets	Plural			
15286	6774	fla h_tech5_normal_gloves	0	One machine can do the work of fifty ordinary men. No machine can do the work of one extraordinary man.\n- Elbert Hubbard	Singular	Default		
15286	6774	fla h_tech5_normal_gloves	0	One machine can do the work of fifty ordinary men. No machine can do the work of one extraordinary man.\n- Elbert Hubbard	Plural			
15287	6775	h_tech5_normal_head	0	Cybernet Helmet	Singular	Default		
15287	6775	h_tech5_normal_head	0	Cybernet Helmets	Plural			
15288	6776	h_tech5_normal_head Unique 01	0	Somberg's Guise	Singular	Default		
15288	6776	h_tech5_normal_head Unique 01	0	Techa VizGuards	Plural			
15289	6777	fla h_tech5_normal_head	0	Vision without action is merely a dream. Action without vision just passes the time. Vision with action can change the world.\n- Joel A. Barker	Singular	Default		
15289	6777	fla h_tech5_normal_head	0	Vision without action is merely a dream. Action without vision just passes the time. Vision with action can change the world.\n- Joel A. Barker	Plural			
15290	6778	h_tech5_normal_pants	0	Cybernet Legs	Singular	Default		
15290	6778	h_tech5_normal_pants	0	Cybernet Legs	Plural			
15291	6779	h_tech5_normal_pants Unique 01	0	TechaWeave	Singular	Default		
15291	6779	h_tech5_normal_pants Unique 01	0	TechaWeaves	Plural			
15292	6780	fla h_tech5_normal_pants	0	The future has already arrived. It's just not evenly distributed yet.\n- William Gibson	Singular	Default		
15292	6780	fla h_tech5_normal_pants	0	The future has already arrived. It's just not evenly distributed yet.\n- William Gibson	Plural			
15293	6781	h_tech5_normal_shoulders	0	Cybernet Shoulders	Singular	Default		
15293	6781	h_tech5_normal_shoulders	0	Cybernet Shoulders	Plural			
15294	6782	h_tech5_normal_shoulders Unique 01	0	Techa Bladeguards	Singular	Default		
15294	6782	h_tech5_normal_shoulders Unique 01	0	Techa Bladeguards	Plural			
15295	6783	fla h_tech5_normal_shoulders	0	"If you fall, fall on your back. If you can look up, you can get up.\n- Les Brown"	Singular	Default		
15295	6783	fla h_tech5_normal_shoulders	0	"If you fall, fall on your back. If you can look up, you can get up.\n- Les Brown"	Plural			
15296	6784	h_tech5_normal_torso	0	Cybernet Core	Singular	Default		
15296	6784	h_tech5_normal_torso	0	Cybernet Cores	Plural			
15297	6785	h_tech5_normal_torso Unique 01	0	Techa Battlecore	Singular	Default		
15297	6785	h_tech5_normal_torso Unique 01	0	Techa Battlecores	Plural			
15298	6786	fla h_tech5_normal_torso	0	"I would be willing, yes glad, to see a battle every day during my life.\n- George Armstrong Custer"	Singular	Default		
15298	6786	fla h_tech5_normal_torso	0	"I would be willing, yes glad, to see a battle every day during my life.\n- George Armstrong Custer"	Plural			
15299	6787	h_tech5_normal_boots	0	Cybernet Boots	Singular	Default		
15299	6787	h_tech5_normal_boots	0	Cybernet Boots	Plural			
15300	6788	h_tech5_normal_boots Unique 01	0	Techa Deathstompers	Singular	Default		
15300	6788	h_tech5_normal_boots Unique 01	0	Techa Deathstompers	Plural			
15301	6789	fla h_tech5_normal_boots	0	Power never takes a back step only in the face of more power.\n- Malcolm X	Singular	Default		
15301	6789	fla h_tech5_normal_boots	0	Power never takes a back step only in the face of more power.\n- Malcolm X	Plural			
15302	6790	t_power5_normal_belt	0	Seraph Belt	Singular	Default		
15302	6790	t_power5_normal_belt	0	Seraph Belts	Plural			
15303	6791	t_power5_normal_belt Unique 01	0	Archangel Cincture	Singular	Default		
15303	6791	t_power5_normal_belt Unique 01	0	Archangel Cinctures	Plural			
15304	6792	fla t_power5_normal_belt	0	"Gird me, O Lord, with the cincture of fortitude, and quench in my heart the fire of cowardice.\n- Templar Prayer"	Singular	Default		
15304	6792	fla t_power5_normal_belt	0	"Gird me, O Lord, with the cincture of fortitude, and quench in my heart the fire of cowardice.\n- Templar Prayer"	Plural			
15305	6793	t_power5_normal_gloves	0	Seraph Gauntlets	Singular	Default		
15305	6793	t_power5_normal_gloves	0	Seraph Gauntlets	Plural			
15306	6794	t_power5_normal_gloves Unique 01	0	Hands of Heaven	Singular	Default		
15306	6794	t_power5_normal_gloves Unique 01	0	Hands of Heaven	Plural			
15307	6795	fla t_power5_normal_gloves	0	"Is there not some hidden thunder in the stores of heaven, red with uncommon wrath, to blast the monster who seeks this country's ruin!\n- Joseph Addison"	Singular	Default		
15307	6795	fla t_power5_normal_gloves	0	"Is there not some hidden thunder in the stores of heaven, red with uncommon wrath, to blast the monster who seeks this country's ruin!\n- Joseph Addison"	Plural			
15308	6796	t_power5_normal_head	0	Seraph Helm	Singular	Default		
15308	6796	t_power5_normal_head	0	Seraph Helms	Plural			
15309	6797	t_power5_normal_head Unique 01	0	Angelic Visage	Singular	Default		
15309	6797	t_power5_normal_head Unique 01	0	Angelic Visages	Plural			
15310	6798	fla t_power5_normal_head	0	The bravest sight in the world is to see a great man struggling against adversity.\n- Lucius Annaeus Seneca	Singular	Default		
15310	6798	fla t_power5_normal_head	0	The bravest sight in the world is to see a great man struggling against adversity.\n- Lucius Annaeus Seneca	Plural			
15311	6799	t_power5_normal_pants	0	Seraph Cuisses	Singular	Default		
15311	6799	t_power5_normal_pants	0	Seraph Cuisses	Plural			
15312	6800	t_power5_normal_pants Unique 01	0	Archangel Cuisses	Singular	Default		
15312	6800	t_power5_normal_pants Unique 01	0	Archangel Cuisses	Plural			
15313	6801	fla t_power5_normal_pants	0	Let us go forward in this battle fortified by conviction that those who labour in the service of a great and good cause will never fail.\n- Owen Arthur	Singular	Default		
15313	6801	fla t_power5_normal_pants	0	Let us go forward in this battle fortified by conviction that those who labour in the service of a great and good cause will never fail.\n- Owen Arthur	Plural			
15314	6802	t_power5_normal_shoulders	0	Seraph Spaulders	Singular	Default		
15314	6802	t_power5_normal_shoulders	0	Seraph Spaulders	Plural			
15315	6803	t_power5_normal_shoulders Unique 01	0	Archangel Wings	Singular	Default		
15315	6803	t_power5_normal_shoulders Unique 01	0	Archangel Wings	Plural			
15316	6804	fla t_power5_normal_shoulders	0	He who can prevail in battle by taking advantage of his enemy's doubts is invincible.\n- Cao Cao	Singular	Default		
15316	6804	fla t_power5_normal_shoulders	0	He who can prevail in battle by taking advantage of his enemy's doubts is invincible.\n- Cao Cao	Plural			
15317	6805	t_power5_normal_torso	0	Seraph Cuirass	Singular	Default		
15317	6805	t_power5_normal_torso	0	Seraph Cuirasses	Plural			
15318	6806	t_power5_normal_torso Unique 01	0	Heart of Heaven	Singular	Default		
15318	6806	t_power5_normal_torso Unique 01	0	Hearts of Heaven	Plural			
15319	6807	fla t_power5_normal_torso	0	"Any man's finest hour, the greatest fulfillment of all that he holds dear, is that moment when he has worked his heart out in a good cause and lies exhausted on the field of battle - victorious.\n- Vince Lombardi"	Singular	Default		
15319	6807	fla t_power5_normal_torso	0	"Any man's finest hour, the greatest fulfillment of all that he holds dear, is that moment when he has worked his heart out in a good cause and lies exhausted on the field of battle - victorious.\n- Vince Lombardi"	Plural			
15320	6808	t_power5_normal_boots	0	Seraph Sollerets	Singular	Default		
15320	6808	t_power5_normal_boots	0	Seraph Sollerets	Plural			
15321	6809	t_power5_normal_boots Unique 01	0	Archangel Gliders	Singular	Default		
15321	6809	t_power5_normal_boots Unique 01	0	Archangel Gliders	Plural			
15322	6810	fla t_power5_normal_boots	0	Living at risk is jumping off the cliff and building your wings on the way down.\n- Ray Bradbury	Singular	Default		
15322	6810	fla t_power5_normal_boots	0	Living at risk is jumping off the cliff and building your wings on the way down.\n- Ray Bradbury	Plural			
15323	6811	cursed_ring_generic1	0	Accursed Band	Singular	Default		
15323	6811	cursed_ring_generic1	0	Accursed Bands	Plural			
15324	6812	fla cursed_ring_generic1	0	Every blessing ignored becomes a curse.\n- Paulo Coelho	Singular	Default		
15324	6812	fla cursed_ring_generic1	0	Every blessing ignored becomes a curse.\n- Paulo Coelho	Plural			
15325	6813	ring_generic1	0	Skillful Opal Band	Singular	Default		
15325	6813	ring_generic1	0	Skillful Opal Bands	Plural			
15326	6814	fla ring_generic1	0	"He that struggles with us strengthens our nerves, and sharpens our skill. Our antagonist is our helper.\n- Edmund Burke"	Singular	Default		
15326	6814	fla ring_generic1	0	"He that struggles with us strengthens our nerves, and sharpens our skill. Our antagonist is our helper.\n- Edmund Burke"	Plural			
15327	6815	cursed_ring_generic2	0	Cursed Circle	Singular	Default		
15327	6815	cursed_ring_generic2	0	Cursed Circles	Plural			
15328	6816	fla cursed_ring_generic2	0	"Good can exist without evil, whereas evil cannot exist without good.\n- Saint Thomas Aquinas"	Singular	Default		
15328	6816	fla cursed_ring_generic2	0	"Good can exist without evil, whereas evil cannot exist without good.\n- Saint Thomas Aquinas"	Plural			
15329	6817	ring_generic2	0	Defender's Stone Circle	Singular	Default		
15329	6817	ring_generic2	0	ring_generic2	Plural			
15330	6818	fla ring_generic2	0	"My own ambition in the ring had always been skill, speed and defense.\n- Gene Tunney"	Singular	Default		
15330	6818	fla ring_generic2	0	"My own ambition in the ring had always been skill, speed and defense.\n- Gene Tunney"	Plural			
15331	6819	cursed_ring_generic3	0	Ruinous Ring	Singular	Default		
15331	6819	cursed_ring_generic3	0	Ruinous Rings	Plural			
15332	6820	fla cursed_ring_generic3	0	"Destroy the seed of evil, or it will grow up to your ruin.\n- Aesop"	Singular	Default		
15332	6820	fla cursed_ring_generic3	0	"Destroy the seed of evil, or it will grow up to your ruin.\n- Aesop"	Plural			
15333	6821	ring_generic3	0	Silver Runic Ring	Singular	Default		
15333	6821	ring_generic3	0	ring_generic3	Plural			
15334	6822	fla ring_generic3	0	A hidden connection is stronger than an obvious one.\n- Heraclitus of Ephesus	Singular	Default		
15334	6822	fla ring_generic3	0	A hidden connection is stronger than an obvious one.\n- Heraclitus of Ephesus	Plural			
15335	6823	cursed_ring_boss1	0	Talox's Tormented Soulband	Singular	Default		
15335	6823	cursed_ring_boss1	0	cursed_ring_boss1	Plural			
15336	6824	fla cursed_ring_boss1	0	The mind is the result of the torments the flesh undergoes or inflicts upon itself.\n- Emile M. Cioran	Singular	Default		
15336	6824	fla cursed_ring_boss1	0	The mind is the result of the torments the flesh undergoes or inflicts upon itself.\n- Emile M. Cioran	Plural			
15337	6825	ring_boss1	0	Talox's Ruby	Singular	Default		
15337	6825	ring_boss1	0	ring_boss1	Plural			
15338	6826	ring_boss1_unique	0	Talox's Masterwork Soulband	Singular	Default		
15338	6826	ring_boss1_unique	0	ring_boss1_unique	Plural			
15339	6827	fla ring_boss1	0	"Ordinary riches can be stolen, real riches cannot. In your soul are infinitely precious things that cannot be taken from you.\n- Oscar Wilde"	Singular	Default		
15339	6827	fla ring_boss1	0	"Ordinary riches can be stolen, real riches cannot. In your soul are infinitely precious things that cannot be taken from you.\n- Oscar Wilde"	Plural			
15340	6828	cursed_ring_boss2	0	Vitava's Vengeful Stone	Singular	Default		
15340	6828	cursed_ring_boss2	0	cursed_ring_boss2	Plural			
15341	6829	fla cursed_ring_boss2	0	"Vengeance is mine, and I will repay.\n- Leo Tolstoy"	Singular	Default		
15341	6829	fla cursed_ring_boss2	0	"Vengeance is mine, and I will repay.\n- Leo Tolstoy"	Plural			
15342	6830	ring_boss2	0	Vitava's Emerald	Singular	Default		
15342	6830	ring_boss2	0	ring_boss2	Plural			
15343	6831	ring_boss2_unique	0	Vitava's Masterwork Stone	Singular	Default		
15343	6831	ring_boss2_unique	0	ring_boss2_unique	Plural			
15344	6832	fla ring_boss2	0	The emerald light coming from within is refracted and dispersed according to the consistency of the impurities that gave it its quality.\n- Thomas D'Evelyn	Singular	Default		
15344	6832	fla ring_boss2	0	The emerald light coming from within is refracted and dispersed according to the consistency of the impurities that gave it its quality.\n- Thomas D'Evelyn	Plural			
15345	6833	cursed_ring_boss3	0	Dreadnaught's Accursed Circle	Singular	Default		
15345	6833	cursed_ring_boss3	0	cursed_ring_boss3	Plural			
15346	6834	fla cursed_ring_boss3	0	"Of all base passions, fear is the most accursed.\n- William Shakespeare"	Singular	Default		
15346	6834	fla cursed_ring_boss3	0	"Of all base passions, fear is the most accursed.\n- William Shakespeare"	Plural			
15347	6835	ring_boss3	0	Dreadnaught's Ring	Singular	Default		
15347	6835	ring_boss3	0	ring_boss3	Plural			
15348	6836	ring_boss3_unique	0	Dreadnaught's Masterwork Band	Singular	Default		
15348	6836	ring_boss3_unique	0	ring_boss3_unique	Plural			
15349	6837	fla ring_boss3	0	"Behold, I have refined thee, but not with silver; I have chosen thee in the furnace of affliction.\n- Isaiah 48:10 "	Singular	Default		
15349	6837	fla ring_boss3	0	"Behold, I have refined thee, but not with silver; I have chosen thee in the furnace of affliction.\n- Isaiah 48:10 "	Plural			
15350	6838	cursed_ring_boss4	0	Fulcrum's Spiteful Scalework	Singular	Default		
15350	6838	cursed_ring_boss4	0	cursed_ring_boss4	Plural			
15351	6839	fla cursed_ring_boss4	0	Spite and hatred go hand in hand.\n- Seeker Crowe	Singular	Default		
15351	6839	fla cursed_ring_boss4	0	Spite and hatred go hand in hand.\n- Seeker Crowe	Plural			
15352	6840	ring_boss4	0	Fulcrum's Scale	Singular	Default		
15352	6840	ring_boss4	0	ring_boss4	Plural			
15353	6841	ring_boss4_unique	0	Fulcrum's Masterwork Scale	Singular	Default		
15353	6841	ring_boss4_unique	0	ring_boss4_unique	Plural			
15354	6842	fla ring_boss4	0	Measure not by the scale of perfection the meager product of reality.\n- Friedrich von Schiller	Singular	Default		
15354	6842	fla ring_boss4	0	Measure not by the scale of perfection the meager product of reality.\n- Friedrich von Schiller	Plural			
15355	6843	cursed_ring_boss5	0	Squadro's Cursed Crystal	Singular	Default		
15355	6843	cursed_ring_boss5	0	cursed_ring_boss5	Plural			
15356	6844	fla cursed_ring_boss5	0	To me death is not a fearful thing. It's living that's cursed.\n- Jim Jones	Singular	Default		
15356	6844	fla cursed_ring_boss5	0	To me death is not a fearful thing. It's living that's cursed.\n- Jim Jones	Plural			
15357	6845	ring_boss5	0	Squadro's Prism	Singular	Default		
15357	6845	ring_boss5	0	ring_boss5	Plural			
15358	6846	ring_boss5_unique	0	Squadro's Masterwork Crystal	Singular	Default		
15358	6846	ring_boss5_unique	0	ring_boss5_unique	Plural			
15359	6847	fla ring_boss5	0	"In the attitude of silence the soul finds the path in an clearer light, and what is elusive and deceptive resolves itself into crystal clearness.\n- Mahatma Ghandi"	Singular	Default		
15359	6847	fla ring_boss5	0	"In the attitude of silence the soul finds the path in an clearer light, and what is elusive and deceptive resolves itself into crystal clearness.\n- Mahatma Ghandi"	Plural			
15360	6848	Dye_Kit_Talox_Fire	0	Ultimate Flame Dye Kit	Singular	Default		
15360	6848	Dye_Kit_Talox_Fire	0	Ultimate Flame Dye Kits	Plural			
15361	6849	Dye_Kit_Talox_Physical	0	Ultimate Steel Dye Kit	Singular	Default		
15361	6849	Dye_Kit_Talox_Physical	0	Ultimate Steel Dye Kits	Plural			
15362	6850	Dye_Kit_Talox_Toxic	0	Ultimate Venom Dye Kit	Singular	Default		
15362	6850	Dye_Kit_Talox_Toxic	0	Ultimate Venom Dye Kits	Plural			
15363	6851	Dye_Kit_Talox_Spectral	0	Ultimate Rift Dye Kit	Singular	Default		
15363	6851	Dye_Kit_Talox_Spectral	0	Ultimate Rift Dye Kits	Plural			
15364	6852	affix sub TechUber	0	Sentinel [item]	English			
15365	6853	affix sub TechUber2	0	Angelic [item]	English			
15366	6854	affix sub PowerUber	0	Onslaught [item]	English			
15367	6855	affix sub PowerUber2	0	Overlord [item]	English			
15368	6856	affix mythic	0	Mythic [item]	English			
15369	6857	affix mythic desc	0	Mythic	English			
15370	6858	affix negative	0	Double-Edged [item]	English			
15371	6859	affix negative desc	0	Double-Edged	English			
15372	6860	affix sub dam aug weapon mythic	0	Heavenly [item]	English			
15373	6861	affix sub dam aug weapon mythic desc	0	Heavenly	English			
15374	6862	affix sub dmg boost phys fire weap mythic	0	Fulminating [item]	English			
15375	6863	affix sub dmg boost phys fire weap mythic desc	0	Fulminating	English			
15376	6864	affix sub dmg boost phys elec weap mythic	0	Crashing [item]	English			
15377	6865	affix sub dmg boost phys elec weap mythic desc	0	Crashing	English			
15378	6866	affix sub dmg boost phys spec weap mythic	0	Soulblasting [item]	English			
15379	6867	affix sub dmg boost phys spec weap mythic desc	0	Soulblasting	English			
15380	6868	affix sub dmg boost phys toxic weap mythic	0	Pernicous [item]	English			
15381	6869	affix sub dmg boost phys toxic weap mythic desc	0	Pernicous	English			
15382	6870	affix sub dmg boost fire elec weap mythic	0	Pyrostatic [item]	English			
15383	6871	affix sub dmg boost fire elec weap mythic desc	0	Pyrostatic	English			
15384	6872	affix sub dmg boost fire spec weap mythic	0	Consumed [item]	English			
15385	6873	affix sub dmg boost fire spec weap mythic desc	0	Consumed	English			
15386	6874	affix sub dmg boost fire toxic weap mythic	0	Sulfuric [item]	English			
15387	6875	affix sub dmg boost fire toxic weap mythic desc	0	Sulfuric	English			
15388	6876	affix sub dmg boost elec spec weap mythic	0	Surging [item]	English			
15389	6877	affix sub dmg boost elec spec weap mythic desc	0	Surging	English			
15390	6878	affix sub dmg boost elec toxic weap mythic	0	Crackling [item]	English			
15391	6879	affix sub dmg boost elec toxic weap mythic desc	0	Crackling	English			
15392	6880	affix sub dmg boost spec toxic weap mythic	0	Infesting [item]	English			
15393	6881	affix sub dmg boost spec toxic weap mythic desc	0	Infesting	English			
15394	6882	affix sub sfx boost phys weap mythic	0	Deadening [item]	English			
15395	6883	affix sub sfx boost phys weap mythic desc	0	Deadening	English			
15396	6884	affix sub sfx boost fire weap mythic	0	Immolating [item]	English			
15397	6885	affix sub sfx boost fire weap mythic desc	0	Immolating 	English			
15398	6886	affix sub sfx boost elec weap mythic	0	Incapacitating [item]	English			
15399	6887	affix sub sfx boost elec weap mythic desc	0	Incapacitating	English			
15400	6888	affix sub sfx boost spec weap mythic	0	Sanctified [item]	English			
15401	6889	affix sub sfx boost spec weap mythic desc	0	Sancitified	English			
15402	6890	affix sub sfx boost toxic weap mythic	0	Corrupted [item]	English			
15403	6891	affix sub sfx boost toxic weap mythic desc	0	Corrupted	English			
15404	6892	affix sub crit chance add mythic	0	Nemesis' [item]	English			
15405	6893	affix sub crit chance add mythic desc	0	Nemesis'	English			
15406	6894	affix sub radius boost weap mythic	0	Global [item]	English			
15407	6895	affix sub radius boost weap mythic desc	0	Global	English			
15408	6896	affix sub range boost mythic	0	Astronomic [item]	English			
15409	6897	affix sub range boost mythic desc	0	Astronomic	English			
15410	6898	affix sub precision bonus mythic	0	Elite Marksman's [item]	English			
15411	6899	affix sub precision bonus mythic desc	0	Elite Marksman	English			
15412	6900	affix sub proc toxic nova mythic	0	Vile [item]	English			
15413	6901	affix sub proc toxic nova mythic desc	0	Vile	English			
15414	6902	affix sub proc fire nova mythic	0	Torrid [item]	English			
15415	6903	affix sub proc fire nova mythic desc	0	Torrid	English			
15416	6904	affix sub proc spectral nova mythic	0	Flailing [item]	English			
15417	6905	affix sub proc spectral nova mythic desc	0	Flailing	English			
15418	6906	affix sub proc charged bolt nova mythic	0	Raging [item]	English			
15419	6907	affix sub proc charged bolt nova mythic desc	0	Raging	English			
15420	6908	affix sub proc arc jumper mythic	0	Puncturing [item]	English			
15421	6909	affix sub proc arc jumper mythic desc	0	Puncturing	English			
15422	6910	affix sub proc blaze pistol mythic	0	Flaring [item]	English			
15423	6911	affix sub proc blaze pistol mythic desc	0	Flaring	English			
15424	6912	affix sub proc frag blaster mythic	0	Echoing [item]	English			
15425	6913	affix sub proc frag blaster mythic desc	0	Echoing	English			
15426	6914	affix sub proc hyper slicer mythic	0	Attenuating [item]	English			
15427	6915	affix sub proc hyper slicer mythic desc	0	Attenuating	English			
15428	6916	affix sub pet damage weapon mythic	0	Commanding [item]	English			
15429	6917	affix sub pet damage weapon mythic desc	0	Commanding	English			
15430	6918	affix sub will armor mythic	0	Pontific [item]	English			
15431	6919	affix sub will armor mythic desc	0	Pontific	English			
15432	6920	affix sub str armor mythic	0	Intrepid [item]	English			
15433	6921	affix sub str armor mythic desc	0	Intrepid	English			
15434	6922	affix sub acc armor mythic	0	Hawk's [item]	English			
15435	6923	affix sub acc armor mythic desc	0	Hawk's	English			
15436	6924	affix sub sta armor mythic	0	Colossal [item]	English			
15437	6925	affix sub sta armor mythic desc	0	Colossal	English			
15438	6926	affix sub all stat armor scaled mythic	0	Heroic [item]	English			
15439	6927	affix sub all stat armor scaled mythic desc	0	Heroic	English			
15440	6928	affix sub hp armor mythic	0	Full-Bodied [item]	English			
15441	6929	affix sub hp armor mythic desc	0	Full-Bodied	English			
15442	6930	affix sub hp pct armor mythic	0	Immortalizing [item]	English			
15443	6931	affix sub hp pct armor mythic desc	0	Immortalizing	English			
15444	6932	affix sub power armor mythic	0	Rejuvenating [item]	English			
15445	6933	affix sub power armor mythic desc	0	Rejuvenating	English			
15446	6934	affix sub speed mythic	0	Accelerating [item]	English			
15447	6935	affix sub speed mythic desc	0	Accelerating	English			
15448	6936	affix sub luck mythic	0	Prophetic [item]	English			
15449	6937	affix sub luck mythic desc	0	Prophetic	English			
15450	6938	affix sub proc all mythic	0	Prismatically Charged [item]	English			
15451	6939	affix sub proc all mythic desc	0	Prismatically Charged	English			
15452	6940	affix sub pet damage armor mythic	0	Dominating [item]	English			
15453	6941	affix sub pet damage armor mythic desc	0	Dominating	English			
15454	6942	affix sub dam aug mod mythic	0	Heavenly [item]	English			
15455	6943	affix sub dam aug mod mythic desc	0	Heavenly	English			
15456	6944	affix sub dmg boost phys fire mod mythic	0	Disintegrating [item]	English			
15457	6945	affix sub dmg boost phys fire mod mythic desc	0	Disintegrating	English			
15458	6946	affix sub dmg boost phys elec mod mythic	0	Clamorous [item]	English			
15459	6947	affix sub dmg boost phys elec mod mythic desc	0	Clamorous	English			
15460	6948	affix sub dmg boost phys spec mod mythic	0	Wailing [item]	English			
15461	6949	affix sub dmg boost phys spec mod mythic desc	0	Wailing	English			
15462	6950	affix sub dmg boost phys toxic mod mythic	0	Corrosive [item]	English			
15463	6951	affix sub dmg boost phys toxic mod mythic desc	0	Corrosive	English			
15464	6952	affix sub dmg boost fire elec mod mythic	0	Conflagrant [item]	English			
15465	6953	affix sub dmg boost fire elec mod mythic desc	0	Conflagrant	English			
15466	6954	affix sub dmg boost fire spec mod mythic	0	Cindering [item]	English			
15467	6955	affix sub dmg boost fire spec mod mythic desc	0	Cindering	English			
15468	6956	affix sub dmg boost fire toxic mod mythic	0	Acidic [item]	English			
15469	6957	affix sub dmg boost fire toxic mod mythic desc	0	Acidic	English			
15470	6958	affix sub dmg boost elec spec mod mythic	0	Enrapturing [item]	English			
15471	6959	affix sub dmg boost elec spec mod mythic desc	0	Enrapturing	English			
15472	6960	affix sub dmg boost elec toxic mod mythic	0	Putrefying [item]	English			
15473	6961	affix sub dmg boost elec toxic mod mythic desc	0	Putrefying	English			
15474	6962	affix sub dmg boost spec toxic mod mythic	0	Preternatural [item]	English			
15475	6963	affix sub dmg boost spec toxic mod mythic desc	0	Preternatural	English			
15476	6964	affix sub sfx boost phys mod mythic	0	Deadening [item]	English			
15477	6965	affix sub sfx boost phys mod mythic desc	0	Deadening	English			
15478	6966	affix sub sfx boost fire mod mythic	0	Immolating [item]	English			
15479	6967	affix sub sfx boost fire mod mythic desc	0	Immolating	English			
15480	6968	affix sub sfx boost elec mod mythic	0	Incapacitating [item]	English			
15481	6969	affix sub sfx boost elec mod mythic desc	0	Incapacitating	English			
15482	6970	affix sub sfx boost spec mod mythic	0	Sanctified [item]	English			
15483	6971	affix sub sfx boost spec mod mythic desc	0	Sancitified	English			
15484	6972	affix sub sfx boost toxic mod mythic	0	Corrupted [Item]	English			
15485	6973	affix sub sfx boost toxic mod mythic desc	0	Corrupted	English			
15486	6974	affix sub pet damage mod mythic	0	Mordacious [item]	English			
15487	6975	affix sub pet damage mod mythic desc	0	Mordacious	English			
15488	6976	affix sub pet health mod mythic	0	Capacious [item]	English			
15489	6977	affix sub pet health mod mythic desc	0	Capacious	English			
15490	6978	affix sub pet armor pet mythic	0	Roborant [item]	English			
15491	6979	affix sub pet armor pet mythic desc	0	Roborant	English			
15492	6980	affix sub shield penetration mythic	0	Impaling [item]	English			
15493	6981	affix sub shield penetration mythic desc	0	Impaling	English			
15494	6982	affix sub precision consistency bonus mythic	0	Errorless [item]	English			
15495	6983	affix sub precision consistency bonus mythic desc	0	Errorless	English			
15496	6984	affix sub will mod mythic	0	Runic [item]	English			
15497	6985	affix sub will mod mythic desc	0	Runic	English			
15498	6986	affix sub str mod mythic	0	Brawn [item]	English			
15499	6987	affix sub str mod mythic desc	0	Brawn	English			
15500	6988	affix sub acc mod mythic	0	Prescience [item]	English			
15501	6989	affix sub acc mod mythic desc	0	Prescience	English			
15502	6990	affix sub sta mod mythic	0	Hardening [item]	English			
15503	6991	affix sub sta mod mythic desc	0	Hardening	English			
15504	6992	affix sub all stat mod mythic	0	Champion [item]	English			
15505	6993	affix sub all stat mod mythic desc	0	Champion	English			
15506	6994	affix sub crit mult vs dam vs beast mythic	0	BeastSlaughterer's [item]	English			
15507	6995	affix sub crit mult vs dam vs beast mythic desc	0	BeastSlaughterer's	English			
15508	6996	affix sub crit mult vs dam vs necro mythic	0	NecroSlaughterer's [item]	English			
15509	6997	affix sub crit mult vs dam vs necro mythic desc	0	NecroSlaughterer's	English			
15510	6998	affix sub crit mult vs dam vs spectral mythic	0	SpectralSlaughterer's [item]	English			
15511	6999	affix sub crit mult vs dam vs spectral mythic desc	0	SpectralSlaughterer's	English			
15512	7000	affix sub crit mult vs dam vs demon mythic	0	DemonSlaughterer's [item]	English			
15513	7001	affix sub crit mult vs dam vs demon mythic desc	0	DemonSlaughterer's	English			
15514	7002	affix sub hp pct armor negative	0	Sapping [item]	English			
15515	7003	affix sub hp pct armor negative desc	0	Sapping 	English			
15516	7004	affix sub all stat armor scaled negative	0	Dreadful [item]	English			
15517	7005	affix sub all stat armor scaled negative desc	0	Dreadful	English			
15518	7006	affix sub speed negative	0	Lethargic [item]	English			
15519	7007	affix sub speed negative desc	0	Lethargic	English			
15520	7008	affix sub power armor negative	0	Dissipating [item]	English			
15521	7009	affix sub power armor negative desc	0	Dissipating	English			
15522	7010	affix sub dam aug negative	0	Disabled [item]	English			
15523	7011	affix sub dam aug negative desc	0	Disabled	English			
15524	7012	affix sub skillcost negative	0	Impaired [item]	English			
15525	7013	affix sub skillcost negative desc	0	Impaired	English			
15526	7014	affix sub skill cooldown negative	0	Languid [item]	English			
15527	7015	affix sub skill cooldown negative desc	0	Languid	English			
15528	7016	affix type curse	0	Cursed [item]	English			
15529	7017	affix type curse desc	0	Cursed	English			
15530	7018	affix type core	0	Core [item]	English			
15531	7019	affix type core desc	0	Core	English			
15532	7020	dissector unique 02	0	The Merkabah	Singular	Default		
15532	7021	dissector unique 02	0	The Merkabah's	Plural			
15533	7022	dissector unique 02 fla	0	"Upon ahead, I viewed a great mass of jewel laden light, emanating thunder... being driven by majestic, holy creatures. It was the chariot, the throne... of The Creator.\n-Ezekiel 1:4-26"	Singular	Default		
15534	7023	focus item07 unique 02	0	Focus of Hukhuk	Singular	Default		
15534	7024	focus item07 unique 02	0	Focuses of Hukhuk	Plural			
15535	7025	focus item07 unique 02 fla	0	I love the smell of vomit and shame in the morning...it smells like victory.\n-Hukhuk	Singular	Default		
15536	7026	focus item07 unique 03	0	Zen Focus	Singular	Default		
15536	7027	focus item07 unique 03	0	Zen Focus's	Plural			
15537	7026	focus item07 unique 03 fla	0	"All things have two sides, lose sight of this and lose yourself."	Singular	Default		
15538	7027	leitners legacy	0	Leitner's Legacy	Singular	Default		
15538	7028	leitners legacy	0	Leitner's Legacies	Plural			
15539	7029	leitners legacy fla	0	I smite thee.	Singular	Default		
15540	7030	bryans harlequin ablaze	0	Bryan's Harlequin Ablaze	Singular	Default		
15540	7031	bryans harlequin ablaze	0	Bryan's Harlequin Ablaze's	Plural			
15541	7032	bryans harlequin ablaze fla	0	"Once the mask is cracked,he will no longer be the one to play the victim."	Singular	Default		
15542	7033	wild retribution	0	Wild Retribution	Singular	Default		
15542	7034	wild retribution	0	Wild Retribution's	Plural			
15543	7035	wild retribution fla	0	If it stands in front of you then kill it.	Singular	Default		
15544	7036	graces lucky garb	0	Grace's Lucky Garb	Singular	Default		
15544	7037	graces lucky garb	0	Grace's Lucky Garb's	Plural			
15545	7038	graces lucky garb fla	0	I'm kind of braindead at the moment.\n - Tirex	Singular	Default		
15546	7039	zarts considered opinion	0	Zart's Considered Opinion	Singular	Default		
15546	7040	zarts considered opinion	0	Zart's Considered Opinion's	Plural			
15547	7041	zarts considered opinion fla	0	"Of Bugger guns, there are none bigger."	Singular	Default		
15548	7042	johnys mecha slicer	0	Johnny's Mecha-Slicer 3000	Singular	Default		
15548	7043	johnys mecha slicer	0	Johnny's Mecha-Slicer 3000's	Plural			
15549	7044	johnys mecha slicer fla	0	"Long has been the predicament of Engineers who have tinkered with their Drones. With this Fancy New Technological Wonder.Armed with a Spectral Emitter this Blade allows constant phasing status to your enemies who dare strike your Drone. With this, your Drone is guaranteed to outlast any battle. AMAZING!\n-Johnny"	Singular	Default		
15550	7045	zomper	0	Zomper	Singular	Default		
15550	7046	zomper	0	Zomper's	English			
15551	7047	achievement zomper title	0	No Sushi For You	English			
15552	7048	achievement zomper descr	0	Kill Zomper	English			
15553	7050	achievement zomper detail	0	"Even after the apocolyse, video game producers are mindless zombies..."	English			
15554	7051	achievement moloch title	0	The Master's Advocate	English			
15555	7053	achievement moloch desr	0	Kill Moloch [completenum] times	English			
15556	7054	achievement moloch detail	0	"As close to death as you come, another step procedes you."	English			
15557	7056	achievement money02 title	0	Piggybank	English			
15558	7057	achievement money02 detail	0	Your so rich.	English			
15559	7059	achievement money03 title	0	Nestegg	English			
15560	7060	achievement money03 detail	0	Just what are you planning to do with all this?	English			
15561	7062	achievement equip02 title	0	Deckout Out	English			
15562	7063	achievement equip02 detail	0	Is there anything less unique than wielding the same items as everyone else?	English			
15563	7065	achievement equip03 title	0	Paint Purple	English			
15564	7066	achievement equip03 descr	0	"If this were Wonkerland, we'd have to roll you out of here."	English			
15565	7068	achievement minigame 02 title	0	Luuuucky!	English			
15566	7069	achievement minigame 02 desr	0	Have you considered going pro?	English			
15567	7071	achievement pet title	0	Friends	English			
15568	7072	achievement pet descr	0	Summon [completenum] pets	English			
15569	7074	achievement pet detail	0	Nothing can come between two companions... perhaps a bladesaw.	English			
15570	7076	achievement sprint title	0	Speedy Gonzales	English			
15571	7077	achievement sprint descr	0	Invest [completenum] points in the sprint skill	English			
15572	7079	achievement sprint detail	0	When the going gets though... run away!!!	English			
15573	7080	achievement findlevel 02 title	0	A Step into Hell	English			
15574	7082	achievement findlevel 02 descr	0	Find Achient Blood [completenum] times	English			
15575	7083	achievement findlevel 02 detail	0	A dark presence lingures this chamber.	English			
15576	7084	achievement retrainer title	0	Back to School	English			
15577	7086	achievement retrainer descr	0	Respec your character skills [completenum] times	English			
15578	7087	achievement retrainer detail	0	"When you do find the ultimate build, let me know!"	English			
15579	7089	tutorial first weapon	0	"Here, exam these weapons and select your inventory."	English			
15580	7091	loading tip revival 01	0	Over 500 hours were spent making the Revival 1.5 patch.	English			
15581	7092	loading tip revival 02	0	You can create your own modifications using our editor Reanimator.	English			
15582	7093	loading tip revival 03	0	It is possible we can bring your more Abyss and Stonehenge content. Be sure to support us.	English			
15582	7094	loading tip revival 04	0	There are 16 new unique items available named after the hellgateaus community.	English			
15583	7095	loading tip revival 05	0	Join us at www.hellgateaus.net	English			
15584	7096	iou note	0	I.O.U. Note	Singular	Default		
15584	7097	iou note	0	I.O.U. Note's	Plural			
15585	7098	iou note descr	0	"This document gaurentees that I owe you a LAN patch, 2 expansions and 150 clams.\\n -Zomper"	Singular	Default		
15586	7099		0		Singular	Default		
15586	7100		0		Plural			
15587	7101		0		Singular	Default		
15588	7102		0		Singular	Default		
15588	7103		0		Plural			
15589	7104		0		Singular	Default		
15590	7105		0		Singular	Default		
15590	7106		0		Plural			
15591	7107		0		Singular	Default		
15592	7108		0		Singular	Default		
15592	7109		0		Plural			
15593	7110		0		Singular	Default		
15594	7111		0		Singular	Default		
15594	7112		0		Plural			
15595	7113		0		Singular	Default		
15596	7114		0		Singular	Default		
15596	7115		0		Plural			
15597	7116		0		Singular	Default		
15598	7117		0		Singular	Default		
15598	7118		0		Plural			
15599	7119		0		Singular	Default		
15600	7120		0		Singular	Default		
15600	7121		0		Plural			
15601	7122		0		Singular	Default		
15602	7123		0		Singular	Default		
15602	7124		0		Plural			
15603	7125		0		Singular	Default		
15604	7126		0		Singular	Default		
15604	7127		0		Plural			
15605	7128		0		Singular	Default		
15606	7129		0		Singular	Default		
15606	7130		0		Plural			
15607	7131		0		Singular	Default		
15608	7132		0		Singular	Default		
15608	7133		0		Plural			
15609	7134		0		Singular	Default		
15610	7135		0		Singular	Default		
15610	7136		0		Plural			
15611	7137		0		Singular	Default		
15612	7138		0		Singular	Default		
15612	7139		0		Plural			
15613	7140		0		Singular	Default		
15614	7141		0		Singular	Default		
15614	7142		0		Plural			
15615	7143		0		Singular	Default		
15616	7144		0		Singular	Default		
15616	7145		0		Plural			
15617	7146		0		Singular	Default		
15618	7147		0		Singular	Default		
15618	7148		0		Plural			
15619	7149		0		Singular	Default		
15620	7150		0		Singular	Default		
15620	7151		0		Plural			
15621	7152		0		Singular	Default		
15622	7153		0		Singular	Default		
15622	7154		0		Plural			
15623	7155		0		Singular	Default		
15624	7156		0		Singular	Default		
15624	7157		0		Plural			
15625	7158		0		Singular	Default		
15626	7159		0		Singular	Default		
15626	7160		0		Plural			
15627	7161		0		Singular	Default		
15628	7162		0		Singular	Default		
